	.file	"genscript.c"
	.text
.Ltext0:
.globl layerHeightMM
	.bss
	.align 4
	.type	layerHeightMM, @object
	.size	layerHeightMM, 4
layerHeightMM:
	.zero	4
.globl coeff
	.align 32
	.type	coeff, @object
	.size	coeff, 10900
coeff:
	.zero	10900
	.text
.globl convert
	.type	convert, @function
convert:
.LFB9:
	.file 1 "genscript.c"
	.loc 1 20 0
	.cfi_startproc
	.cfi_personality 0x0,__gxx_personality_v0
	pushl	%ebp
.LCFI0:
	.cfi_def_cfa_offset 8
	movl	%esp, %ebp
	.cfi_offset 5, -8
.LCFI1:
	.cfi_def_cfa_register 5
	call	mcount
	.loc 1 20 0
	.loc 1 21 0
	movl	12(%ebp), %eax
	movl	44(%ebp), %edx
	imull	$280, %eax, %eax
	leal	(%edx,%eax), %eax
	addl	$2592, %eax
	flds	(%eax)
	fadds	16(%ebp)
	movl	40(%ebp), %eax
	movl	44(%ebp), %edx
	imull	$280, %eax, %eax
	leal	(%edx,%eax), %eax
	addl	$2592, %eax
	flds	(%eax)
	fsubrp	%st, %st(1)
	movl	8(%ebp), %eax
	fstps	(%eax)
	.loc 1 22 0
	movl	12(%ebp), %eax
	movl	44(%ebp), %edx
	imull	$280, %eax, %eax
	leal	(%edx,%eax), %eax
	addl	$2596, %eax
	flds	(%eax)
	fadds	20(%ebp)
	movl	40(%ebp), %eax
	movl	44(%ebp), %edx
	imull	$280, %eax, %eax
	leal	(%edx,%eax), %eax
	addl	$2596, %eax
	flds	(%eax)
	fsubrp	%st, %st(1)
	movl	8(%ebp), %eax
	fstps	4(%eax)
	.loc 1 23 0
	movl	12(%ebp), %eax
	movl	44(%ebp), %edx
	imull	$280, %eax, %eax
	leal	(%edx,%eax), %eax
	addl	$2600, %eax
	flds	(%eax)
	fadds	24(%ebp)
	movl	40(%ebp), %eax
	movl	44(%ebp), %edx
	imull	$280, %eax, %eax
	leal	(%edx,%eax), %eax
	addl	$2600, %eax
	flds	(%eax)
	fsubrp	%st, %st(1)
	movl	8(%ebp), %eax
	fstps	8(%eax)
	.loc 1 24 0
	movl	12(%ebp), %eax
	movl	44(%ebp), %edx
	imull	$280, %eax, %eax
	leal	(%edx,%eax), %eax
	addl	$2604, %eax
	flds	(%eax)
	fadds	28(%ebp)
	movl	40(%ebp), %eax
	movl	44(%ebp), %edx
	imull	$280, %eax, %eax
	leal	(%edx,%eax), %eax
	addl	$2604, %eax
	flds	(%eax)
	fsubrp	%st, %st(1)
	movl	8(%ebp), %eax
	fstps	12(%eax)
	.loc 1 25 0
	movl	12(%ebp), %eax
	movl	44(%ebp), %edx
	imull	$280, %eax, %eax
	leal	(%edx,%eax), %eax
	addl	$2608, %eax
	flds	(%eax)
	fadds	32(%ebp)
	movl	40(%ebp), %eax
	movl	44(%ebp), %edx
	imull	$280, %eax, %eax
	leal	(%edx,%eax), %eax
	addl	$2608, %eax
	flds	(%eax)
	fsubrp	%st, %st(1)
	movl	8(%ebp), %eax
	fstps	16(%eax)
	.loc 1 26 0
	movl	12(%ebp), %eax
	movl	44(%ebp), %edx
	imull	$280, %eax, %eax
	leal	(%edx,%eax), %eax
	addl	$2612, %eax
	flds	(%eax)
	fadds	36(%ebp)
	movl	40(%ebp), %eax
	movl	44(%ebp), %edx
	imull	$280, %eax, %eax
	leal	(%edx,%eax), %eax
	addl	$2612, %eax
	flds	(%eax)
	fsubrp	%st, %st(1)
	movl	8(%ebp), %eax
	fstps	20(%eax)
	.loc 1 27 0
	popl	%ebp
	ret
	.cfi_endproc
.LFE9:
	.size	convert, .-convert
	.section	.rodata
	.align 4
.LC4:
	.string	"POINT %s %3.2f,%3.2f,%3.2f,%3.2f,%3.2f,%3.2f,10.0 %s"
	.text
.globl split
	.type	split, @function
split:
.LFB10:
	.loc 1 33 0
	.cfi_startproc
	.cfi_personality 0x0,__gxx_personality_v0
	pushl	%ebp
.LCFI2:
	.cfi_def_cfa_offset 8
	movl	%esp, %ebp
	.cfi_offset 5, -8
.LCFI3:
	.cfi_def_cfa_register 5
	subl	$408, %esp
	call	mcount
	movl	8(%ebp), %eax
	movl	%eax, -316(%ebp)
	movl	64(%ebp), %eax
	movl	%eax, -320(%ebp)
	movl	68(%ebp), %eax
	movl	%eax, -324(%ebp)
	movl	72(%ebp), %eax
	movl	%eax, -328(%ebp)
	.loc 1 33 0
	movl	%gs:20, %eax
	movl	%eax, -12(%ebp)
	xorl	%eax, %eax
.LBB2:
	.loc 1 37 0
	movl	$0x00000000, %eax
	movl	%eax, -308(%ebp)
	.loc 1 38 0
	cmpl	$0, 60(%ebp)
	jns	.L4
	.loc 1 40 0
	flds	36(%ebp)
	fsubs	12(%ebp)
	flds	36(%ebp)
	fsubs	12(%ebp)
	fmulp	%st, %st(1)
	flds	40(%ebp)
	fsubs	16(%ebp)
	flds	40(%ebp)
	fsubs	16(%ebp)
	fmulp	%st, %st(1)
	faddp	%st, %st(1)
	flds	44(%ebp)
	fsubs	20(%ebp)
	flds	44(%ebp)
	fsubs	20(%ebp)
	fmulp	%st, %st(1)
	faddp	%st, %st(1)
	flds	48(%ebp)
	fsubs	24(%ebp)
	flds	48(%ebp)
	fsubs	24(%ebp)
	fmulp	%st, %st(1)
	faddp	%st, %st(1)
	flds	52(%ebp)
	fsubs	28(%ebp)
	flds	52(%ebp)
	fsubs	28(%ebp)
	fmulp	%st, %st(1)
	faddp	%st, %st(1)
	flds	56(%ebp)
	fsubs	32(%ebp)
	flds	56(%ebp)
	fsubs	32(%ebp)
	fmulp	%st, %st(1)
	faddp	%st, %st(1)
	fld	%st(0)
	fsqrt
	fucom	%st(0)
	fnstsw	%ax
	sahf
	jp	.L18
	je	.L19
	fstp	%st(0)
	jmp	.L17
.L18:
	fstp	%st(0)
.L17:
	fstpl	(%esp)
	call	sqrt
	jmp	.L5
.L19:
	fstp	%st(1)
.L5:
	fnstcw	-334(%ebp)
	movzwl	-334(%ebp), %eax
	movb	$12, %ah
	movw	%ax, -336(%ebp)
	fldcw	-336(%ebp)
	fistpl	-276(%ebp)
	fldcw	-334(%ebp)
	.loc 1 41 0
	fildl	-276(%ebp)
	fldl	.LC2
	fdivrp	%st, %st(1)
	fldcw	-336(%ebp)
	fistpl	-332(%ebp)
	fldcw	-334(%ebp)
	movl	-332(%ebp), %eax
	addl	$1, %eax
	movl	%eax, -280(%ebp)
	.loc 1 42 0
	movl	60(%ebp), %eax
	negl	%eax
	cmpl	-280(%ebp), %eax
	jle	.L6
	negl	60(%ebp)
	jmp	.L7
.L6:
	movl	-280(%ebp), %eax
	movl	%eax, 60(%ebp)
.L7:
	.loc 1 43 0
	cmpl	$0, 60(%ebp)
	jg	.L8
	movl	$0, %eax
	jmp	.L9
.L8:
	.loc 1 44 0
	movl	60(%ebp), %eax
	addl	$1, %eax
	movl	%eax, -332(%ebp)
	fildl	-332(%ebp)
	fld1
	fdivp	%st, %st(1)
	fstps	-312(%ebp)
	.loc 1 45 0
	movl	$0, -272(%ebp)
	jmp	.L10
.L11:
	.loc 1 47 0
	flds	-308(%ebp)
	fadds	-312(%ebp)
	fstps	-308(%ebp)
	.loc 1 48 0
	flds	36(%ebp)
	fsubs	12(%ebp)
	fmuls	-308(%ebp)
	fadds	12(%ebp)
	fstps	-284(%ebp)
	.loc 1 49 0
	flds	40(%ebp)
	fsubs	16(%ebp)
	fmuls	-308(%ebp)
	fadds	16(%ebp)
	fstps	-288(%ebp)
	.loc 1 50 0
	flds	44(%ebp)
	fsubs	20(%ebp)
	fmuls	-308(%ebp)
	fadds	20(%ebp)
	fstps	-292(%ebp)
	.loc 1 51 0
	flds	48(%ebp)
	fsubs	24(%ebp)
	fmuls	-308(%ebp)
	fadds	24(%ebp)
	fstps	-296(%ebp)
	.loc 1 52 0
	flds	52(%ebp)
	fsubs	28(%ebp)
	fmuls	-308(%ebp)
	fadds	28(%ebp)
	fstps	-300(%ebp)
	.loc 1 53 0
	flds	56(%ebp)
	fsubs	32(%ebp)
	fmuls	-308(%ebp)
	fadds	32(%ebp)
	fstps	-304(%ebp)
	.loc 1 54 0
	flds	-304(%ebp)
	flds	-300(%ebp)
	flds	-296(%ebp)
	flds	-292(%ebp)
	flds	-288(%ebp)
	flds	-284(%ebp)
	fxch	%st(5)
	movl	-328(%ebp), %eax
	movl	%eax, 60(%esp)
	fstpl	52(%esp)
	fxch	%st(3)
	fstpl	44(%esp)
	fxch	%st(1)
	fstpl	36(%esp)
	fstpl	28(%esp)
	fstpl	20(%esp)
	fstpl	12(%esp)
	movl	-324(%ebp), %eax
	movl	%eax, 8(%esp)
	movl	$.LC4, 4(%esp)
	leal	-268(%ebp), %eax
	movl	%eax, (%esp)
	call	sprintf
	.loc 1 55 0
	movl	-320(%ebp), %eax
	movl	%eax, 8(%esp)
	leal	-268(%ebp), %eax
	movl	%eax, 4(%esp)
	movl	-316(%ebp), %eax
	movl	%eax, (%esp)
	call	addCommandString
	movl	%eax, -316(%ebp)
	.loc 1 45 0
	addl	$1, -272(%ebp)
.L10:
	movl	-272(%ebp), %eax
	cmpl	60(%ebp), %eax
	setl	%al
	testb	%al, %al
	jne	.L11
	jmp	.L12
.L4:
	.loc 1 58 0
	cmpl	$0, 60(%ebp)
	jle	.L12
	.loc 1 60 0
	movl	60(%ebp), %eax
	subl	$1, %eax
	movl	%eax, -332(%ebp)
	fildl	-332(%ebp)
	fld1
	fdivp	%st, %st(1)
	fstps	-312(%ebp)
	.loc 1 61 0
	movl	$1, -272(%ebp)
	jmp	.L13
.L14:
	.loc 1 63 0
	flds	-308(%ebp)
	fadds	-312(%ebp)
	fstps	-308(%ebp)
	.loc 1 64 0
	flds	36(%ebp)
	fsubs	12(%ebp)
	fmuls	-308(%ebp)
	fadds	12(%ebp)
	fstps	-284(%ebp)
	.loc 1 65 0
	flds	40(%ebp)
	fsubs	16(%ebp)
	fmuls	-308(%ebp)
	fadds	16(%ebp)
	fstps	-288(%ebp)
	.loc 1 66 0
	flds	44(%ebp)
	fsubs	20(%ebp)
	fmuls	-308(%ebp)
	fadds	20(%ebp)
	fstps	-292(%ebp)
	.loc 1 67 0
	flds	48(%ebp)
	fsubs	24(%ebp)
	fmuls	-308(%ebp)
	fadds	24(%ebp)
	fstps	-296(%ebp)
	.loc 1 68 0
	flds	52(%ebp)
	fsubs	28(%ebp)
	fmuls	-308(%ebp)
	fadds	28(%ebp)
	fstps	-300(%ebp)
	.loc 1 69 0
	flds	56(%ebp)
	fsubs	32(%ebp)
	fmuls	-308(%ebp)
	fadds	32(%ebp)
	fstps	-304(%ebp)
	.loc 1 70 0
	flds	-304(%ebp)
	flds	-300(%ebp)
	flds	-296(%ebp)
	flds	-292(%ebp)
	flds	-288(%ebp)
	flds	-284(%ebp)
	fxch	%st(5)
	movl	-328(%ebp), %eax
	movl	%eax, 60(%esp)
	fstpl	52(%esp)
	fxch	%st(3)
	fstpl	44(%esp)
	fxch	%st(1)
	fstpl	36(%esp)
	fstpl	28(%esp)
	fstpl	20(%esp)
	fstpl	12(%esp)
	movl	-324(%ebp), %eax
	movl	%eax, 8(%esp)
	movl	$.LC4, 4(%esp)
	leal	-268(%ebp), %eax
	movl	%eax, (%esp)
	call	sprintf
	.loc 1 71 0
	movl	-320(%ebp), %eax
	movl	%eax, 8(%esp)
	leal	-268(%ebp), %eax
	movl	%eax, 4(%esp)
	movl	-316(%ebp), %eax
	movl	%eax, (%esp)
	call	addCommandString
	movl	%eax, -316(%ebp)
	.loc 1 61 0
	addl	$1, -272(%ebp)
.L13:
	movl	-272(%ebp), %eax
	cmpl	60(%ebp), %eax
	setl	%al
	testb	%al, %al
	jne	.L14
.L12:
	.loc 1 74 0
	movl	-316(%ebp), %eax
.L9:
.LBE2:
	.loc 1 75 0
	movl	-12(%ebp), %edx
	xorl	%gs:20, %edx
	je	.L16
	call	__stack_chk_fail
.L16:
	leave
	ret
	.cfi_endproc
.LFE10:
	.size	split, .-split
.globl convertsplit
	.type	convertsplit, @function
convertsplit:
.LFB11:
	.loc 1 80 0
	.cfi_startproc
	.cfi_personality 0x0,__gxx_personality_v0
	pushl	%ebp
.LCFI4:
	.cfi_def_cfa_offset 8
	movl	%esp, %ebp
	.cfi_offset 5, -8
.LCFI5:
	.cfi_def_cfa_register 5
	pushl	%edi
	pushl	%esi
	pushl	%ebx
	subl	$476, %esp
	call	mcount
	movl	8(%ebp), %eax
	movl	%eax, -348(%ebp)
	movl	36(%ebp), %eax
	movl	%eax, -352(%ebp)
	movl	64(%ebp), %eax
	movl	%eax, -356(%ebp)
	movl	68(%ebp), %eax
	movl	%eax, -360(%ebp)
	movl	76(%ebp), %eax
	movl	%eax, -364(%ebp)
	movl	80(%ebp), %eax
	movl	%eax, -368(%ebp)
	movl	84(%ebp), %eax
	movl	%eax, -372(%ebp)
	.loc 1 80 0
	movl	%gs:20, %eax
	movl	%eax, -28(%ebp)
	xorl	%eax, %eax
.LBB3:
	.loc 1 84 0
	movl	-360(%ebp), %eax
	movl	%eax, 4(%esp)
	movl	-368(%ebp), %eax
	movl	%eax, (%esp)
	.cfi_offset 3, -20
	.cfi_offset 6, -16
	.cfi_offset 7, -12
	call	getFrameIdx
	movl	%eax, %ebx
	movl	-360(%ebp), %eax
	movl	%eax, 4(%esp)
	movl	-352(%ebp), %eax
	movl	%eax, (%esp)
	call	getFrameIdx
	movl	-360(%ebp), %edx
	movl	%edx, 36(%esp)
	movl	%ebx, 32(%esp)
	movl	32(%ebp), %edx
	movl	%edx, 28(%esp)
	movl	28(%ebp), %edx
	movl	%edx, 24(%esp)
	movl	24(%ebp), %edx
	movl	%edx, 20(%esp)
	movl	20(%ebp), %edx
	movl	%edx, 16(%esp)
	movl	16(%ebp), %edx
	movl	%edx, 12(%esp)
	movl	12(%ebp), %edx
	movl	%edx, 8(%esp)
	movl	%eax, 4(%esp)
	leal	-308(%ebp), %eax
	movl	%eax, (%esp)
	call	convert
	.loc 1 85 0
	movl	-360(%ebp), %eax
	movl	%eax, 4(%esp)
	movl	-368(%ebp), %eax
	movl	%eax, (%esp)
	call	getFrameIdx
	movl	%eax, %ebx
	movl	-360(%ebp), %eax
	movl	%eax, 4(%esp)
	movl	-356(%ebp), %eax
	movl	%eax, (%esp)
	call	getFrameIdx
	movl	-360(%ebp), %edx
	movl	%edx, 36(%esp)
	movl	%ebx, 32(%esp)
	movl	60(%ebp), %edx
	movl	%edx, 28(%esp)
	movl	56(%ebp), %edx
	movl	%edx, 24(%esp)
	movl	52(%ebp), %edx
	movl	%edx, 20(%esp)
	movl	48(%ebp), %edx
	movl	%edx, 16(%esp)
	movl	44(%ebp), %edx
	movl	%edx, 12(%esp)
	movl	40(%ebp), %edx
	movl	%edx, 8(%esp)
	movl	%eax, 4(%esp)
	leal	-332(%ebp), %eax
	movl	%eax, (%esp)
	call	convert
	.loc 1 88 0
	movl	-312(%ebp), %ecx
	movl	-316(%ebp), %esi
	movl	-320(%ebp), %edx
	movl	%edx, -400(%ebp)
	movl	-324(%ebp), %eax
	movl	%eax, -396(%ebp)
	movl	-328(%ebp), %edx
	movl	%edx, -392(%ebp)
	movl	-332(%ebp), %eax
	movl	%eax, -388(%ebp)
	movl	-288(%ebp), %edx
	movl	%edx, -384(%ebp)
	movl	-292(%ebp), %eax
	movl	%eax, -380(%ebp)
	movl	-296(%ebp), %edx
	movl	%edx, -376(%ebp)
	movl	-300(%ebp), %edi
	movl	-304(%ebp), %ebx
	movl	-308(%ebp), %edx
	movl	-372(%ebp), %eax
	movl	%eax, 64(%esp)
	movl	-368(%ebp), %eax
	movl	%eax, 60(%esp)
	movl	-364(%ebp), %eax
	movl	%eax, 56(%esp)
	movl	72(%ebp), %eax
	movl	%eax, 52(%esp)
	movl	%ecx, 48(%esp)
	movl	%esi, 44(%esp)
	movl	-400(%ebp), %eax
	movl	%eax, 40(%esp)
	movl	-396(%ebp), %eax
	movl	%eax, 36(%esp)
	movl	-392(%ebp), %eax
	movl	%eax, 32(%esp)
	movl	-388(%ebp), %eax
	movl	%eax, 28(%esp)
	movl	-384(%ebp), %eax
	movl	%eax, 24(%esp)
	movl	-380(%ebp), %eax
	movl	%eax, 20(%esp)
	movl	-376(%ebp), %eax
	movl	%eax, 16(%esp)
	movl	%edi, 12(%esp)
	movl	%ebx, 8(%esp)
	movl	%edx, 4(%esp)
	movl	-348(%ebp), %eax
	movl	%eax, (%esp)
	call	split
	movl	%eax, -348(%ebp)
	.loc 1 89 0
	cmpl	$0, 88(%ebp)
	je	.L21
	.loc 1 99 0
	flds	-312(%ebp)
	flds	-316(%ebp)
	flds	-320(%ebp)
	flds	-324(%ebp)
	flds	-328(%ebp)
	flds	-332(%ebp)
	fxch	%st(5)
	movl	-372(%ebp), %eax
	movl	%eax, 60(%esp)
	fstpl	52(%esp)
	fxch	%st(3)
	fstpl	44(%esp)
	fxch	%st(1)
	fstpl	36(%esp)
	fstpl	28(%esp)
	fstpl	20(%esp)
	fstpl	12(%esp)
	movl	-368(%ebp), %eax
	movl	%eax, 8(%esp)
	movl	$.LC4, 4(%esp)
	leal	-284(%ebp), %eax
	movl	%eax, (%esp)
	call	sprintf
	.loc 1 100 0
	movl	-364(%ebp), %eax
	movl	%eax, 8(%esp)
	leal	-284(%ebp), %eax
	movl	%eax, 4(%esp)
	movl	-348(%ebp), %eax
	movl	%eax, (%esp)
	call	addCommandString
	movl	%eax, -348(%ebp)
.L21:
	.loc 1 102 0
	movl	-348(%ebp), %eax
.LBE3:
	.loc 1 103 0
	movl	-28(%ebp), %edx
	xorl	%gs:20, %edx
	je	.L23
	call	__stack_chk_fail
.L23:
	addl	$476, %esp
	popl	%ebx
	popl	%esi
	popl	%edi
	popl	%ebp
	ret
	.cfi_endproc
.LFE11:
	.size	convertsplit, .-convertsplit
.globl _Z11spiralMacroP9tmpnRobotP11tmpnPathDefPiffffffP10tmpnVectoriii
	.type	_Z11spiralMacroP9tmpnRobotP11tmpnPathDefPiffffffP10tmpnVectoriii, @function
_Z11spiralMacroP9tmpnRobotP11tmpnPathDefPiffffffP10tmpnVectoriii:
.LFB12:
	.loc 1 125 0
	.cfi_startproc
	.cfi_personality 0x0,__gxx_personality_v0
	pushl	%ebp
.LCFI6:
	.cfi_def_cfa_offset 8
	movl	%esp, %ebp
	.cfi_offset 5, -8
.LCFI7:
	.cfi_def_cfa_register 5
	pushl	%ebx
	subl	$116, %esp
	call	mcount
	.loc 1 125 0
.LBB4:
.LBB5:
	.loc 1 127 0
	movl	$0, -12(%ebp)
	jmp	.L25
	.cfi_offset 3, -12
.L26:
.LBB6:
	.loc 1 128 0
	fildl	-12(%ebp)
	fmuls	40(%ebp)
	fildl	48(%ebp)
	fdivrp	%st, %st(1)
	fstps	-16(%ebp)
	.loc 1 129 0
	flds	-16(%ebp)
	fdivs	40(%ebp)
	fstps	-20(%ebp)
	.loc 1 130 0
	movl	44(%ebp), %eax
	flds	(%eax)
	fstpl	-96(%ebp)
	flds	-20(%ebp)
	fld1
	fsubrp	%st, %st(1)
	fldl	.LC5
	fmulp	%st, %st(1)
	flds	-20(%ebp)
	fld1
	fsubrp	%st, %st(1)
	fmulp	%st, %st(1)
	flds	-20(%ebp)
	fmulp	%st, %st(1)
	flds	20(%ebp)
	fmulp	%st, %st(1)
	fstpl	-88(%ebp)
	flds	36(%ebp)
	fldl	.LC6
	fmulp	%st, %st(1)
	flds	-16(%ebp)
	fmulp	%st, %st(1)
	fstpl	(%esp)
	call	sin
	fmull	-88(%ebp)
	fldl	-96(%ebp)
	faddp	%st, %st(1)
	flds	24(%ebp)
	fldl	.LC7
	fmulp	%st, %st(1)
	flds	-20(%ebp)
	fldl	.LC8
	fmulp	%st, %st(1)
	flds	-20(%ebp)
	fmulp	%st, %st(1)
	flds	-20(%ebp)
	flds	.LC9
	fmulp	%st, %st(1)
	fmuls	-20(%ebp)
	fmuls	-20(%ebp)
	faddp	%st, %st(1)
	flds	-20(%ebp)
	fldl	.LC8
	fmulp	%st, %st(1)
	flds	-20(%ebp)
	fmulp	%st, %st(1)
	flds	-20(%ebp)
	fmulp	%st, %st(1)
	flds	-20(%ebp)
	fmulp	%st, %st(1)
	faddp	%st, %st(1)
	fmulp	%st, %st(1)
	faddp	%st, %st(1)
	fstps	-60(%ebp)
	flds	-60(%ebp)
	fstps	-44(%ebp)
	.loc 1 131 0
	movl	44(%ebp), %eax
	flds	4(%eax)
	flds	-20(%ebp)
	flds	-20(%ebp)
	fldl	.LC10
	fmulp	%st, %st(1)
	flds	-20(%ebp)
	fmulp	%st, %st(1)
	flds	-20(%ebp)
	fmulp	%st, %st(1)
	faddp	%st, %st(1)
	fldl	.LC11
	fmulp	%st, %st(1)
	flds	32(%ebp)
	fmulp	%st, %st(1)
	faddp	%st, %st(1)
	fstps	-60(%ebp)
	flds	-60(%ebp)
	fstps	-40(%ebp)
	.loc 1 132 0
	movl	44(%ebp), %eax
	flds	8(%eax)
	fstpl	-80(%ebp)
	flds	-20(%ebp)
	fld1
	fsubrp	%st, %st(1)
	fldl	.LC12
	fmulp	%st, %st(1)
	flds	-20(%ebp)
	fmulp	%st, %st(1)
	flds	-20(%ebp)
	fmulp	%st, %st(1)
	flds	20(%ebp)
	fmulp	%st, %st(1)
	fstpl	-72(%ebp)
	flds	36(%ebp)
	fldl	.LC6
	fmulp	%st, %st(1)
	flds	-16(%ebp)
	fmulp	%st, %st(1)
	fldl	.LC13
	faddp	%st, %st(1)
	fstpl	(%esp)
	call	sin
	fmull	-72(%ebp)
	fldl	-80(%ebp)
	faddp	%st, %st(1)
	flds	28(%ebp)
	fldl	.LC7
	fmulp	%st, %st(1)
	flds	-20(%ebp)
	fldl	.LC8
	fmulp	%st, %st(1)
	flds	-20(%ebp)
	fmulp	%st, %st(1)
	flds	-20(%ebp)
	flds	.LC9
	fmulp	%st, %st(1)
	fmuls	-20(%ebp)
	fmuls	-20(%ebp)
	faddp	%st, %st(1)
	flds	-20(%ebp)
	fldl	.LC8
	fmulp	%st, %st(1)
	flds	-20(%ebp)
	fmulp	%st, %st(1)
	flds	-20(%ebp)
	fmulp	%st, %st(1)
	flds	-20(%ebp)
	fmulp	%st, %st(1)
	faddp	%st, %st(1)
	fmulp	%st, %st(1)
	faddp	%st, %st(1)
	fstps	-60(%ebp)
	flds	-60(%ebp)
	fstps	-36(%ebp)
	.loc 1 133 0
	movl	44(%ebp), %eax
	movl	12(%eax), %eax
	movl	%eax, -32(%ebp)
	.loc 1 134 0
	movl	44(%ebp), %eax
	movl	16(%eax), %eax
	movl	%eax, -28(%ebp)
	.loc 1 135 0
	movl	44(%ebp), %eax
	movl	20(%eax), %eax
	movl	%eax, -24(%ebp)
	.loc 1 136 0
	movl	16(%ebp), %eax
	movl	(%eax), %edx
	movl	-44(%ebp), %ecx
	movl	12(%ebp), %ebx
	movl	%edx, %eax
	addl	%eax, %eax
	addl	%edx, %eax
	sall	$4, %eax
	leal	(%ebx,%eax), %eax
	addl	$320, %eax
	movl	%ecx, (%eax)
	.loc 1 137 0
	movl	16(%ebp), %eax
	movl	(%eax), %edx
	movl	-40(%ebp), %ecx
	movl	12(%ebp), %ebx
	movl	%edx, %eax
	addl	%eax, %eax
	addl	%edx, %eax
	sall	$4, %eax
	leal	(%ebx,%eax), %eax
	addl	$324, %eax
	movl	%ecx, (%eax)
	.loc 1 138 0
	movl	16(%ebp), %eax
	movl	(%eax), %edx
	movl	-36(%ebp), %ecx
	movl	12(%ebp), %ebx
	movl	%edx, %eax
	addl	%eax, %eax
	addl	%edx, %eax
	sall	$4, %eax
	leal	(%ebx,%eax), %eax
	addl	$328, %eax
	movl	%ecx, (%eax)
	.loc 1 139 0
	movl	16(%ebp), %eax
	movl	(%eax), %edx
	movl	-32(%ebp), %ecx
	movl	12(%ebp), %ebx
	movl	%edx, %eax
	addl	%eax, %eax
	addl	%edx, %eax
	sall	$4, %eax
	leal	(%ebx,%eax), %eax
	addl	$332, %eax
	movl	%ecx, (%eax)
	.loc 1 140 0
	movl	16(%ebp), %eax
	movl	(%eax), %edx
	movl	-28(%ebp), %ecx
	movl	12(%ebp), %ebx
	movl	%edx, %eax
	addl	%eax, %eax
	addl	%edx, %eax
	sall	$4, %eax
	leal	(%ebx,%eax), %eax
	addl	$336, %eax
	movl	%ecx, (%eax)
	.loc 1 141 0
	movl	16(%ebp), %eax
	movl	(%eax), %edx
	movl	-24(%ebp), %ecx
	movl	12(%ebp), %ebx
	movl	%edx, %eax
	addl	%eax, %eax
	addl	%edx, %eax
	sall	$4, %eax
	leal	(%ebx,%eax), %eax
	addl	$340, %eax
	movl	%ecx, (%eax)
	.loc 1 142 0
	movl	16(%ebp), %eax
	movl	(%eax), %edx
	movl	12(%ebp), %ecx
	movl	%edx, %eax
	addl	%eax, %eax
	addl	%edx, %eax
	sall	$4, %eax
	leal	(%ecx,%eax), %eax
	leal	308(%eax), %edx
	movl	52(%ebp), %eax
	movl	%eax, (%edx)
	.loc 1 143 0
	movl	16(%ebp), %eax
	movl	(%eax), %edx
	fildl	56(%ebp)
	movl	12(%ebp), %ecx
	movl	%edx, %eax
	addl	%eax, %eax
	addl	%edx, %eax
	sall	$4, %eax
	leal	(%ecx,%eax), %eax
	addl	$316, %eax
	fstps	(%eax)
	.loc 1 144 0
	movl	16(%ebp), %eax
	movl	(%eax), %edx
	movl	12(%ebp), %ecx
	movl	%edx, %eax
	addl	%eax, %eax
	addl	%edx, %eax
	sall	$4, %eax
	leal	(%ecx,%eax), %eax
	addl	$312, %eax
	movl	$0, (%eax)
	.loc 1 145 0
	movl	16(%ebp), %eax
	movl	(%eax), %edx
	movl	12(%ebp), %ecx
	movl	%edx, %eax
	addl	%eax, %eax
	addl	%edx, %eax
	sall	$4, %eax
	leal	(%ecx,%eax), %eax
	leal	344(%eax), %edx
	movl	$0x41200000, %eax
	movl	%eax, (%edx)
	.loc 1 146 0
	movl	16(%ebp), %eax
	movl	(%eax), %eax
	leal	1(%eax), %edx
	movl	16(%ebp), %eax
	movl	%edx, (%eax)
.LBE6:
	.loc 1 127 0
	addl	$1, -12(%ebp)
.L25:
	movl	48(%ebp), %eax
	addl	$1, %eax
	cmpl	-12(%ebp), %eax
	setg	%al
	testb	%al, %al
	jne	.L26
.LBE5:
.LBE4:
	.loc 1 148 0
	addl	$116, %esp
	popl	%ebx
	popl	%ebp
	ret
	.cfi_endproc
.LFE12:
	.size	_Z11spiralMacroP9tmpnRobotP11tmpnPathDefPiffffffP10tmpnVectoriii, .-_Z11spiralMacroP9tmpnRobotP11tmpnPathDefPiffffffP10tmpnVectoriii
	.section	.text.spiralspeed,"axG",@progbits,spiralspeed,comdat
	.weak	spiralspeed
	.type	spiralspeed, @function
spiralspeed:
.LFB13:
	.loc 1 151 0
	.cfi_startproc
	.cfi_personality 0x0,__gxx_personality_v0
	pushl	%ebp
.LCFI8:
	.cfi_def_cfa_offset 8
	movl	%esp, %ebp
	.cfi_offset 5, -8
.LCFI9:
	.cfi_def_cfa_register 5
	call	mcount
	.loc 1 151 0
	.loc 1 152 0
	flds	8(%ebp)
	flds	.LC15
	fmulp	%st, %st(1)
	flds	12(%ebp)
	flds	.LC16
	fmulp	%st, %st(1)
	fdivrp	%st, %st(1)
	.loc 1 153 0
	popl	%ebp
	ret
	.cfi_endproc
.LFE13:
	.size	spiralspeed, .-spiralspeed
	.text
.globl _Z11uplineMacroP9tmpnRobotP11tmpnPathDefPiffP10tmpnVectoriii
	.type	_Z11uplineMacroP9tmpnRobotP11tmpnPathDefPiffP10tmpnVectoriii, @function
_Z11uplineMacroP9tmpnRobotP11tmpnPathDefPiffP10tmpnVectoriii:
.LFB14:
	.loc 1 171 0
	.cfi_startproc
	.cfi_personality 0x0,__gxx_personality_v0
	pushl	%ebp
.LCFI10:
	.cfi_def_cfa_offset 8
	movl	%esp, %ebp
	.cfi_offset 5, -8
.LCFI11:
	.cfi_def_cfa_register 5
	pushl	%ebx
	subl	$52, %esp
	call	mcount
	.loc 1 171 0
.LBB7:
.LBB8:
	.loc 1 173 0
	movl	$0, -8(%ebp)
	jmp	.L31
	.cfi_offset 3, -12
.L32:
.LBB9:
	.loc 1 174 0
	fildl	-8(%ebp)
	fmuls	24(%ebp)
	fildl	32(%ebp)
	fdivrp	%st, %st(1)
	fstps	-12(%ebp)
	.loc 1 175 0
	flds	-12(%ebp)
	fdivs	24(%ebp)
	fld1
	fsubp	%st, %st(1)
	fstps	-16(%ebp)
	.loc 1 176 0
	movl	28(%ebp), %eax
	movl	(%eax), %eax
	movl	%eax, -40(%ebp)
	.loc 1 177 0
	movl	28(%ebp), %eax
	flds	4(%eax)
	flds	-16(%ebp)
	flds	-16(%ebp)
	fldl	.LC10
	fmulp	%st, %st(1)
	flds	-16(%ebp)
	fmulp	%st, %st(1)
	flds	-16(%ebp)
	fmulp	%st, %st(1)
	faddp	%st, %st(1)
	fldl	.LC11
	fmulp	%st, %st(1)
	flds	20(%ebp)
	fmulp	%st, %st(1)
	faddp	%st, %st(1)
	fstps	-56(%ebp)
	flds	-56(%ebp)
	fstps	-36(%ebp)
	.loc 1 178 0
	movl	28(%ebp), %eax
	movl	8(%eax), %eax
	movl	%eax, -32(%ebp)
	.loc 1 179 0
	movl	28(%ebp), %eax
	movl	12(%eax), %eax
	movl	%eax, -28(%ebp)
	.loc 1 180 0
	movl	28(%ebp), %eax
	movl	16(%eax), %eax
	movl	%eax, -24(%ebp)
	.loc 1 181 0
	movl	28(%ebp), %eax
	movl	20(%eax), %eax
	movl	%eax, -20(%ebp)
	.loc 1 182 0
	movl	16(%ebp), %eax
	movl	(%eax), %edx
	movl	-40(%ebp), %ecx
	movl	12(%ebp), %ebx
	movl	%edx, %eax
	addl	%eax, %eax
	addl	%edx, %eax
	sall	$4, %eax
	leal	(%ebx,%eax), %eax
	addl	$320, %eax
	movl	%ecx, (%eax)
	.loc 1 183 0
	movl	16(%ebp), %eax
	movl	(%eax), %edx
	movl	-36(%ebp), %ecx
	movl	12(%ebp), %ebx
	movl	%edx, %eax
	addl	%eax, %eax
	addl	%edx, %eax
	sall	$4, %eax
	leal	(%ebx,%eax), %eax
	addl	$324, %eax
	movl	%ecx, (%eax)
	.loc 1 184 0
	movl	16(%ebp), %eax
	movl	(%eax), %edx
	movl	-32(%ebp), %ecx
	movl	12(%ebp), %ebx
	movl	%edx, %eax
	addl	%eax, %eax
	addl	%edx, %eax
	sall	$4, %eax
	leal	(%ebx,%eax), %eax
	addl	$328, %eax
	movl	%ecx, (%eax)
	.loc 1 185 0
	movl	16(%ebp), %eax
	movl	(%eax), %edx
	movl	-28(%ebp), %ecx
	movl	12(%ebp), %ebx
	movl	%edx, %eax
	addl	%eax, %eax
	addl	%edx, %eax
	sall	$4, %eax
	leal	(%ebx,%eax), %eax
	addl	$332, %eax
	movl	%ecx, (%eax)
	.loc 1 186 0
	movl	16(%ebp), %eax
	movl	(%eax), %edx
	movl	-24(%ebp), %ecx
	movl	12(%ebp), %ebx
	movl	%edx, %eax
	addl	%eax, %eax
	addl	%edx, %eax
	sall	$4, %eax
	leal	(%ebx,%eax), %eax
	addl	$336, %eax
	movl	%ecx, (%eax)
	.loc 1 187 0
	movl	16(%ebp), %eax
	movl	(%eax), %edx
	movl	-20(%ebp), %ecx
	movl	12(%ebp), %ebx
	movl	%edx, %eax
	addl	%eax, %eax
	addl	%edx, %eax
	sall	$4, %eax
	leal	(%ebx,%eax), %eax
	addl	$340, %eax
	movl	%ecx, (%eax)
	.loc 1 188 0
	movl	16(%ebp), %eax
	movl	(%eax), %edx
	movl	12(%ebp), %ecx
	movl	%edx, %eax
	addl	%eax, %eax
	addl	%edx, %eax
	sall	$4, %eax
	leal	(%ecx,%eax), %eax
	leal	308(%eax), %edx
	movl	36(%ebp), %eax
	movl	%eax, (%edx)
	.loc 1 189 0
	movl	16(%ebp), %eax
	movl	(%eax), %edx
	fildl	40(%ebp)
	movl	12(%ebp), %ecx
	movl	%edx, %eax
	addl	%eax, %eax
	addl	%edx, %eax
	sall	$4, %eax
	leal	(%ecx,%eax), %eax
	addl	$316, %eax
	fstps	(%eax)
	.loc 1 190 0
	movl	16(%ebp), %eax
	movl	(%eax), %edx
	movl	12(%ebp), %ecx
	movl	%edx, %eax
	addl	%eax, %eax
	addl	%edx, %eax
	sall	$4, %eax
	leal	(%ecx,%eax), %eax
	addl	$312, %eax
	movl	$0, (%eax)
	.loc 1 191 0
	movl	16(%ebp), %eax
	movl	(%eax), %edx
	movl	12(%ebp), %ecx
	movl	%edx, %eax
	addl	%eax, %eax
	addl	%edx, %eax
	sall	$4, %eax
	leal	(%ecx,%eax), %eax
	leal	344(%eax), %edx
	movl	$0x41200000, %eax
	movl	%eax, (%edx)
	.loc 1 192 0
	movl	16(%ebp), %eax
	movl	(%eax), %eax
	leal	1(%eax), %edx
	movl	16(%ebp), %eax
	movl	%edx, (%eax)
.LBE9:
	.loc 1 173 0
	addl	$1, -8(%ebp)
.L31:
	movl	-8(%ebp), %eax
	cmpl	32(%ebp), %eax
	setl	%al
	testb	%al, %al
	jne	.L32
.LBE8:
.LBE7:
	.loc 1 194 0
	addl	$52, %esp
	popl	%ebx
	popl	%ebp
	ret
	.cfi_endproc
.LFE14:
	.size	_Z11uplineMacroP9tmpnRobotP11tmpnPathDefPiffP10tmpnVectoriii, .-_Z11uplineMacroP9tmpnRobotP11tmpnPathDefPiffP10tmpnVectoriii
	.section	.text.uplinespeed,"axG",@progbits,uplinespeed,comdat
	.weak	uplinespeed
	.type	uplinespeed, @function
uplinespeed:
.LFB15:
	.loc 1 197 0
	.cfi_startproc
	.cfi_personality 0x0,__gxx_personality_v0
	pushl	%ebp
.LCFI12:
	.cfi_def_cfa_offset 8
	movl	%esp, %ebp
	.cfi_offset 5, -8
.LCFI13:
	.cfi_def_cfa_register 5
	call	mcount
	.loc 1 197 0
	.loc 1 198 0
	flds	8(%ebp)
	flds	.LC15
	fmulp	%st, %st(1)
	flds	12(%ebp)
	fadd	%st(0), %st
	fdivrp	%st, %st(1)
	.loc 1 199 0
	popl	%ebp
	ret
	.cfi_endproc
.LFE15:
	.size	uplinespeed, .-uplinespeed
	.text
.globl _Z15fastUplineMacroP9tmpnRobotP11tmpnPathDefPiffP10tmpnVectoriii
	.type	_Z15fastUplineMacroP9tmpnRobotP11tmpnPathDefPiffP10tmpnVectoriii, @function
_Z15fastUplineMacroP9tmpnRobotP11tmpnPathDefPiffP10tmpnVectoriii:
.LFB16:
	.loc 1 202 0
	.cfi_startproc
	.cfi_personality 0x0,__gxx_personality_v0
	pushl	%ebp
.LCFI14:
	.cfi_def_cfa_offset 8
	movl	%esp, %ebp
	.cfi_offset 5, -8
.LCFI15:
	.cfi_def_cfa_register 5
	pushl	%ebx
	subl	$52, %esp
	call	mcount
	.loc 1 202 0
.LBB10:
	.loc 1 204 0
	flds	20(%ebp)
	fld	%st(0)
	faddp	%st, %st(1)
	flds	24(%ebp)
	fmuls	24(%ebp)
	fdivrp	%st, %st(1)
	fstps	-8(%ebp)
.LBB11:
	.loc 1 205 0
	movl	$0, -12(%ebp)
	jmp	.L37
	.cfi_offset 3, -12
.L38:
.LBB12:
	.loc 1 206 0
	fildl	-12(%ebp)
	fmuls	24(%ebp)
	fildl	32(%ebp)
	fdivrp	%st, %st(1)
	fstps	-16(%ebp)
	.loc 1 207 0
	movl	28(%ebp), %eax
	movl	(%eax), %eax
	movl	%eax, -40(%ebp)
	.loc 1 208 0
	movl	28(%ebp), %eax
	flds	4(%eax)
	fsubs	20(%ebp)
	flds	-8(%ebp)
	fldl	.LC17
	fmulp	%st, %st(1)
	flds	-16(%ebp)
	fmulp	%st, %st(1)
	flds	-16(%ebp)
	fmulp	%st, %st(1)
	faddp	%st, %st(1)
	fstps	-56(%ebp)
	flds	-56(%ebp)
	fstps	-36(%ebp)
	.loc 1 209 0
	movl	28(%ebp), %eax
	movl	8(%eax), %eax
	movl	%eax, -32(%ebp)
	.loc 1 210 0
	movl	28(%ebp), %eax
	movl	12(%eax), %eax
	movl	%eax, -28(%ebp)
	.loc 1 211 0
	movl	28(%ebp), %eax
	movl	16(%eax), %eax
	movl	%eax, -24(%ebp)
	.loc 1 212 0
	movl	28(%ebp), %eax
	movl	20(%eax), %eax
	movl	%eax, -20(%ebp)
	.loc 1 213 0
	movl	16(%ebp), %eax
	movl	(%eax), %edx
	movl	-40(%ebp), %ecx
	movl	12(%ebp), %ebx
	movl	%edx, %eax
	addl	%eax, %eax
	addl	%edx, %eax
	sall	$4, %eax
	leal	(%ebx,%eax), %eax
	addl	$320, %eax
	movl	%ecx, (%eax)
	.loc 1 214 0
	movl	16(%ebp), %eax
	movl	(%eax), %edx
	movl	-36(%ebp), %ecx
	movl	12(%ebp), %ebx
	movl	%edx, %eax
	addl	%eax, %eax
	addl	%edx, %eax
	sall	$4, %eax
	leal	(%ebx,%eax), %eax
	addl	$324, %eax
	movl	%ecx, (%eax)
	.loc 1 215 0
	movl	16(%ebp), %eax
	movl	(%eax), %edx
	movl	-32(%ebp), %ecx
	movl	12(%ebp), %ebx
	movl	%edx, %eax
	addl	%eax, %eax
	addl	%edx, %eax
	sall	$4, %eax
	leal	(%ebx,%eax), %eax
	addl	$328, %eax
	movl	%ecx, (%eax)
	.loc 1 216 0
	movl	16(%ebp), %eax
	movl	(%eax), %edx
	movl	-28(%ebp), %ecx
	movl	12(%ebp), %ebx
	movl	%edx, %eax
	addl	%eax, %eax
	addl	%edx, %eax
	sall	$4, %eax
	leal	(%ebx,%eax), %eax
	addl	$332, %eax
	movl	%ecx, (%eax)
	.loc 1 217 0
	movl	16(%ebp), %eax
	movl	(%eax), %edx
	movl	-24(%ebp), %ecx
	movl	12(%ebp), %ebx
	movl	%edx, %eax
	addl	%eax, %eax
	addl	%edx, %eax
	sall	$4, %eax
	leal	(%ebx,%eax), %eax
	addl	$336, %eax
	movl	%ecx, (%eax)
	.loc 1 218 0
	movl	16(%ebp), %eax
	movl	(%eax), %edx
	movl	-20(%ebp), %ecx
	movl	12(%ebp), %ebx
	movl	%edx, %eax
	addl	%eax, %eax
	addl	%edx, %eax
	sall	$4, %eax
	leal	(%ebx,%eax), %eax
	addl	$340, %eax
	movl	%ecx, (%eax)
	.loc 1 219 0
	movl	16(%ebp), %eax
	movl	(%eax), %edx
	movl	12(%ebp), %ecx
	movl	%edx, %eax
	addl	%eax, %eax
	addl	%edx, %eax
	sall	$4, %eax
	leal	(%ecx,%eax), %eax
	leal	308(%eax), %edx
	movl	36(%ebp), %eax
	movl	%eax, (%edx)
	.loc 1 220 0
	movl	16(%ebp), %eax
	movl	(%eax), %edx
	fildl	40(%ebp)
	movl	12(%ebp), %ecx
	movl	%edx, %eax
	addl	%eax, %eax
	addl	%edx, %eax
	sall	$4, %eax
	leal	(%ecx,%eax), %eax
	addl	$316, %eax
	fstps	(%eax)
	.loc 1 221 0
	movl	16(%ebp), %eax
	movl	(%eax), %edx
	movl	12(%ebp), %ecx
	movl	%edx, %eax
	addl	%eax, %eax
	addl	%edx, %eax
	sall	$4, %eax
	leal	(%ecx,%eax), %eax
	addl	$312, %eax
	movl	$0, (%eax)
	.loc 1 222 0
	movl	16(%ebp), %eax
	movl	(%eax), %edx
	movl	12(%ebp), %ecx
	movl	%edx, %eax
	addl	%eax, %eax
	addl	%edx, %eax
	sall	$4, %eax
	leal	(%ecx,%eax), %eax
	leal	344(%eax), %edx
	movl	$0x41200000, %eax
	movl	%eax, (%edx)
	.loc 1 223 0
	movl	16(%ebp), %eax
	movl	(%eax), %eax
	leal	1(%eax), %edx
	movl	16(%ebp), %eax
	movl	%edx, (%eax)
.LBE12:
	.loc 1 205 0
	addl	$1, -12(%ebp)
.L37:
	movl	-12(%ebp), %eax
	cmpl	32(%ebp), %eax
	setl	%al
	testb	%al, %al
	jne	.L38
.LBE11:
.LBE10:
	.loc 1 225 0
	addl	$52, %esp
	popl	%ebx
	popl	%ebp
	ret
	.cfi_endproc
.LFE16:
	.size	_Z15fastUplineMacroP9tmpnRobotP11tmpnPathDefPiffP10tmpnVectoriii, .-_Z15fastUplineMacroP9tmpnRobotP11tmpnPathDefPiffP10tmpnVectoriii
	.section	.text._Z15fastuplinespeedff,"axG",@progbits,_Z15fastuplinespeedff,comdat
	.weak	_Z15fastuplinespeedff
	.type	_Z15fastuplinespeedff, @function
_Z15fastuplinespeedff:
.LFB17:
	.loc 1 228 0
	.cfi_startproc
	.cfi_personality 0x0,__gxx_personality_v0
	pushl	%ebp
.LCFI16:
	.cfi_def_cfa_offset 8
	movl	%esp, %ebp
	.cfi_offset 5, -8
.LCFI17:
	.cfi_def_cfa_register 5
	call	mcount
	.loc 1 228 0
	.loc 1 229 0
	flds	8(%ebp)
	fadd	%st(0), %st
	fdivs	12(%ebp)
	.loc 1 230 0
	popl	%ebp
	ret
	.cfi_endproc
.LFE17:
	.size	_Z15fastuplinespeedff, .-_Z15fastuplinespeedff
	.text
.globl _Z13downlineMacroP9tmpnRobotP11tmpnPathDefPiffP10tmpnVectoriii
	.type	_Z13downlineMacroP9tmpnRobotP11tmpnPathDefPiffP10tmpnVectoriii, @function
_Z13downlineMacroP9tmpnRobotP11tmpnPathDefPiffP10tmpnVectoriii:
.LFB18:
	.loc 1 247 0
	.cfi_startproc
	.cfi_personality 0x0,__gxx_personality_v0
	pushl	%ebp
.LCFI18:
	.cfi_def_cfa_offset 8
	movl	%esp, %ebp
	.cfi_offset 5, -8
.LCFI19:
	.cfi_def_cfa_register 5
	pushl	%ebx
	subl	$52, %esp
	call	mcount
	.loc 1 247 0
.LBB13:
.LBB14:
	.loc 1 249 0
	movl	$0, -8(%ebp)
	jmp	.L43
	.cfi_offset 3, -12
.L44:
.LBB15:
	.loc 1 250 0
	fildl	-8(%ebp)
	fmuls	24(%ebp)
	fildl	32(%ebp)
	fdivrp	%st, %st(1)
	fstps	-12(%ebp)
	.loc 1 251 0
	flds	-12(%ebp)
	fdivs	24(%ebp)
	fstps	-16(%ebp)
	.loc 1 252 0
	movl	28(%ebp), %eax
	movl	(%eax), %eax
	movl	%eax, -40(%ebp)
	.loc 1 253 0
	movl	28(%ebp), %eax
	flds	4(%eax)
	flds	-16(%ebp)
	flds	-16(%ebp)
	fldl	.LC10
	fmulp	%st, %st(1)
	flds	-16(%ebp)
	fmulp	%st, %st(1)
	flds	-16(%ebp)
	fmulp	%st, %st(1)
	faddp	%st, %st(1)
	fldl	.LC11
	fmulp	%st, %st(1)
	flds	20(%ebp)
	fmulp	%st, %st(1)
	faddp	%st, %st(1)
	fstps	-56(%ebp)
	flds	-56(%ebp)
	fstps	-36(%ebp)
	.loc 1 254 0
	movl	28(%ebp), %eax
	movl	8(%eax), %eax
	movl	%eax, -32(%ebp)
	.loc 1 255 0
	movl	28(%ebp), %eax
	movl	12(%eax), %eax
	movl	%eax, -28(%ebp)
	.loc 1 256 0
	movl	28(%ebp), %eax
	movl	16(%eax), %eax
	movl	%eax, -24(%ebp)
	.loc 1 257 0
	movl	28(%ebp), %eax
	movl	20(%eax), %eax
	movl	%eax, -20(%ebp)
	.loc 1 258 0
	movl	16(%ebp), %eax
	movl	(%eax), %edx
	movl	-40(%ebp), %ecx
	movl	12(%ebp), %ebx
	movl	%edx, %eax
	addl	%eax, %eax
	addl	%edx, %eax
	sall	$4, %eax
	leal	(%ebx,%eax), %eax
	addl	$320, %eax
	movl	%ecx, (%eax)
	.loc 1 259 0
	movl	16(%ebp), %eax
	movl	(%eax), %edx
	movl	-36(%ebp), %ecx
	movl	12(%ebp), %ebx
	movl	%edx, %eax
	addl	%eax, %eax
	addl	%edx, %eax
	sall	$4, %eax
	leal	(%ebx,%eax), %eax
	addl	$324, %eax
	movl	%ecx, (%eax)
	.loc 1 260 0
	movl	16(%ebp), %eax
	movl	(%eax), %edx
	movl	-32(%ebp), %ecx
	movl	12(%ebp), %ebx
	movl	%edx, %eax
	addl	%eax, %eax
	addl	%edx, %eax
	sall	$4, %eax
	leal	(%ebx,%eax), %eax
	addl	$328, %eax
	movl	%ecx, (%eax)
	.loc 1 261 0
	movl	16(%ebp), %eax
	movl	(%eax), %edx
	movl	-28(%ebp), %ecx
	movl	12(%ebp), %ebx
	movl	%edx, %eax
	addl	%eax, %eax
	addl	%edx, %eax
	sall	$4, %eax
	leal	(%ebx,%eax), %eax
	addl	$332, %eax
	movl	%ecx, (%eax)
	.loc 1 262 0
	movl	16(%ebp), %eax
	movl	(%eax), %edx
	movl	-24(%ebp), %ecx
	movl	12(%ebp), %ebx
	movl	%edx, %eax
	addl	%eax, %eax
	addl	%edx, %eax
	sall	$4, %eax
	leal	(%ebx,%eax), %eax
	addl	$336, %eax
	movl	%ecx, (%eax)
	.loc 1 263 0
	movl	16(%ebp), %eax
	movl	(%eax), %edx
	movl	-20(%ebp), %ecx
	movl	12(%ebp), %ebx
	movl	%edx, %eax
	addl	%eax, %eax
	addl	%edx, %eax
	sall	$4, %eax
	leal	(%ebx,%eax), %eax
	addl	$340, %eax
	movl	%ecx, (%eax)
	.loc 1 264 0
	movl	16(%ebp), %eax
	movl	(%eax), %edx
	movl	12(%ebp), %ecx
	movl	%edx, %eax
	addl	%eax, %eax
	addl	%edx, %eax
	sall	$4, %eax
	leal	(%ecx,%eax), %eax
	leal	308(%eax), %edx
	movl	36(%ebp), %eax
	movl	%eax, (%edx)
	.loc 1 265 0
	movl	16(%ebp), %eax
	movl	(%eax), %edx
	fildl	40(%ebp)
	movl	12(%ebp), %ecx
	movl	%edx, %eax
	addl	%eax, %eax
	addl	%edx, %eax
	sall	$4, %eax
	leal	(%ecx,%eax), %eax
	addl	$316, %eax
	fstps	(%eax)
	.loc 1 266 0
	movl	16(%ebp), %eax
	movl	(%eax), %edx
	movl	12(%ebp), %ecx
	movl	%edx, %eax
	addl	%eax, %eax
	addl	%edx, %eax
	sall	$4, %eax
	leal	(%ecx,%eax), %eax
	addl	$312, %eax
	movl	$0, (%eax)
	.loc 1 267 0
	movl	16(%ebp), %eax
	movl	(%eax), %edx
	movl	12(%ebp), %ecx
	movl	%edx, %eax
	addl	%eax, %eax
	addl	%edx, %eax
	sall	$4, %eax
	leal	(%ecx,%eax), %eax
	leal	344(%eax), %edx
	movl	$0x41200000, %eax
	movl	%eax, (%edx)
	.loc 1 268 0
	movl	16(%ebp), %eax
	movl	(%eax), %eax
	leal	1(%eax), %edx
	movl	16(%ebp), %eax
	movl	%edx, (%eax)
.LBE15:
	.loc 1 249 0
	addl	$1, -8(%ebp)
.L43:
	movl	32(%ebp), %eax
	addl	$1, %eax
	cmpl	-8(%ebp), %eax
	setg	%al
	testb	%al, %al
	jne	.L44
.LBE14:
.LBE13:
	.loc 1 270 0
	addl	$52, %esp
	popl	%ebx
	popl	%ebp
	ret
	.cfi_endproc
.LFE18:
	.size	_Z13downlineMacroP9tmpnRobotP11tmpnPathDefPiffP10tmpnVectoriii, .-_Z13downlineMacroP9tmpnRobotP11tmpnPathDefPiffP10tmpnVectoriii
	.section	.text.downlinespeed,"axG",@progbits,downlinespeed,comdat
	.weak	downlinespeed
	.type	downlinespeed, @function
downlinespeed:
.LFB19:
	.loc 1 273 0
	.cfi_startproc
	.cfi_personality 0x0,__gxx_personality_v0
	pushl	%ebp
.LCFI20:
	.cfi_def_cfa_offset 8
	movl	%esp, %ebp
	.cfi_offset 5, -8
.LCFI21:
	.cfi_def_cfa_register 5
	call	mcount
	.loc 1 273 0
	.loc 1 274 0
	flds	8(%ebp)
	flds	.LC9
	fmulp	%st, %st(1)
	flds	12(%ebp)
	fadd	%st(0), %st
	fdivrp	%st, %st(1)
	.loc 1 275 0
	popl	%ebp
	ret
	.cfi_endproc
.LFE19:
	.size	downlinespeed, .-downlinespeed
	.text
.globl _Z17fastDownlineMacroP9tmpnRobotP11tmpnPathDefPiffP10tmpnVectoriii
	.type	_Z17fastDownlineMacroP9tmpnRobotP11tmpnPathDefPiffP10tmpnVectoriii, @function
_Z17fastDownlineMacroP9tmpnRobotP11tmpnPathDefPiffP10tmpnVectoriii:
.LFB20:
	.loc 1 278 0
	.cfi_startproc
	.cfi_personality 0x0,__gxx_personality_v0
	pushl	%ebp
.LCFI22:
	.cfi_def_cfa_offset 8
	movl	%esp, %ebp
	.cfi_offset 5, -8
.LCFI23:
	.cfi_def_cfa_register 5
	pushl	%ebx
	subl	$52, %esp
	call	mcount
	.loc 1 278 0
.LBB16:
	.loc 1 280 0
	flds	20(%ebp)
	fld	%st(0)
	faddp	%st, %st(1)
	flds	24(%ebp)
	fmuls	24(%ebp)
	fdivrp	%st, %st(1)
	fstps	-8(%ebp)
.LBB17:
	.loc 1 281 0
	movl	$0, -12(%ebp)
	jmp	.L49
	.cfi_offset 3, -12
.L50:
.LBB18:
	.loc 1 282 0
	fildl	-12(%ebp)
	fmuls	24(%ebp)
	fildl	32(%ebp)
	fdivrp	%st, %st(1)
	fstps	-16(%ebp)
	.loc 1 283 0
	flds	24(%ebp)
	fsubs	-16(%ebp)
	fstps	-20(%ebp)
	.loc 1 284 0
	movl	28(%ebp), %eax
	movl	(%eax), %eax
	movl	%eax, -44(%ebp)
	.loc 1 285 0
	movl	28(%ebp), %eax
	flds	4(%eax)
	fsubs	20(%ebp)
	flds	-8(%ebp)
	fldl	.LC17
	fmulp	%st, %st(1)
	flds	-20(%ebp)
	fmulp	%st, %st(1)
	flds	-20(%ebp)
	fmulp	%st, %st(1)
	faddp	%st, %st(1)
	fstps	-56(%ebp)
	flds	-56(%ebp)
	fstps	-40(%ebp)
	.loc 1 286 0
	movl	28(%ebp), %eax
	movl	8(%eax), %eax
	movl	%eax, -36(%ebp)
	.loc 1 287 0
	movl	28(%ebp), %eax
	movl	12(%eax), %eax
	movl	%eax, -32(%ebp)
	.loc 1 288 0
	movl	28(%ebp), %eax
	movl	16(%eax), %eax
	movl	%eax, -28(%ebp)
	.loc 1 289 0
	movl	28(%ebp), %eax
	movl	20(%eax), %eax
	movl	%eax, -24(%ebp)
	.loc 1 290 0
	movl	16(%ebp), %eax
	movl	(%eax), %edx
	movl	-44(%ebp), %ecx
	movl	12(%ebp), %ebx
	movl	%edx, %eax
	addl	%eax, %eax
	addl	%edx, %eax
	sall	$4, %eax
	leal	(%ebx,%eax), %eax
	addl	$320, %eax
	movl	%ecx, (%eax)
	.loc 1 291 0
	movl	16(%ebp), %eax
	movl	(%eax), %edx
	movl	-40(%ebp), %ecx
	movl	12(%ebp), %ebx
	movl	%edx, %eax
	addl	%eax, %eax
	addl	%edx, %eax
	sall	$4, %eax
	leal	(%ebx,%eax), %eax
	addl	$324, %eax
	movl	%ecx, (%eax)
	.loc 1 292 0
	movl	16(%ebp), %eax
	movl	(%eax), %edx
	movl	-36(%ebp), %ecx
	movl	12(%ebp), %ebx
	movl	%edx, %eax
	addl	%eax, %eax
	addl	%edx, %eax
	sall	$4, %eax
	leal	(%ebx,%eax), %eax
	addl	$328, %eax
	movl	%ecx, (%eax)
	.loc 1 293 0
	movl	16(%ebp), %eax
	movl	(%eax), %edx
	movl	-32(%ebp), %ecx
	movl	12(%ebp), %ebx
	movl	%edx, %eax
	addl	%eax, %eax
	addl	%edx, %eax
	sall	$4, %eax
	leal	(%ebx,%eax), %eax
	addl	$332, %eax
	movl	%ecx, (%eax)
	.loc 1 294 0
	movl	16(%ebp), %eax
	movl	(%eax), %edx
	movl	-28(%ebp), %ecx
	movl	12(%ebp), %ebx
	movl	%edx, %eax
	addl	%eax, %eax
	addl	%edx, %eax
	sall	$4, %eax
	leal	(%ebx,%eax), %eax
	addl	$336, %eax
	movl	%ecx, (%eax)
	.loc 1 295 0
	movl	16(%ebp), %eax
	movl	(%eax), %edx
	movl	-24(%ebp), %ecx
	movl	12(%ebp), %ebx
	movl	%edx, %eax
	addl	%eax, %eax
	addl	%edx, %eax
	sall	$4, %eax
	leal	(%ebx,%eax), %eax
	addl	$340, %eax
	movl	%ecx, (%eax)
	.loc 1 296 0
	movl	16(%ebp), %eax
	movl	(%eax), %edx
	movl	12(%ebp), %ecx
	movl	%edx, %eax
	addl	%eax, %eax
	addl	%edx, %eax
	sall	$4, %eax
	leal	(%ecx,%eax), %eax
	leal	308(%eax), %edx
	movl	36(%ebp), %eax
	movl	%eax, (%edx)
	.loc 1 297 0
	movl	16(%ebp), %eax
	movl	(%eax), %edx
	fildl	40(%ebp)
	movl	12(%ebp), %ecx
	movl	%edx, %eax
	addl	%eax, %eax
	addl	%edx, %eax
	sall	$4, %eax
	leal	(%ecx,%eax), %eax
	addl	$316, %eax
	fstps	(%eax)
	.loc 1 298 0
	movl	16(%ebp), %eax
	movl	(%eax), %edx
	movl	12(%ebp), %ecx
	movl	%edx, %eax
	addl	%eax, %eax
	addl	%edx, %eax
	sall	$4, %eax
	leal	(%ecx,%eax), %eax
	addl	$312, %eax
	movl	$0, (%eax)
	.loc 1 299 0
	movl	16(%ebp), %eax
	movl	(%eax), %edx
	movl	12(%ebp), %ecx
	movl	%edx, %eax
	addl	%eax, %eax
	addl	%edx, %eax
	sall	$4, %eax
	leal	(%ecx,%eax), %eax
	leal	344(%eax), %edx
	movl	$0x41200000, %eax
	movl	%eax, (%edx)
	.loc 1 300 0
	movl	16(%ebp), %eax
	movl	(%eax), %eax
	leal	1(%eax), %edx
	movl	16(%ebp), %eax
	movl	%edx, (%eax)
.LBE18:
	.loc 1 281 0
	addl	$1, -12(%ebp)
.L49:
	movl	32(%ebp), %eax
	addl	$1, %eax
	cmpl	-12(%ebp), %eax
	setg	%al
	testb	%al, %al
	jne	.L50
.LBE17:
.LBE16:
	.loc 1 302 0
	addl	$52, %esp
	popl	%ebx
	popl	%ebp
	ret
	.cfi_endproc
.LFE20:
	.size	_Z17fastDownlineMacroP9tmpnRobotP11tmpnPathDefPiffP10tmpnVectoriii, .-_Z17fastDownlineMacroP9tmpnRobotP11tmpnPathDefPiffP10tmpnVectoriii
	.section	.text._Z17fastdownlinespeedff,"axG",@progbits,_Z17fastdownlinespeedff,comdat
	.weak	_Z17fastdownlinespeedff
	.type	_Z17fastdownlinespeedff, @function
_Z17fastdownlinespeedff:
.LFB21:
	.loc 1 305 0
	.cfi_startproc
	.cfi_personality 0x0,__gxx_personality_v0
	pushl	%ebp
.LCFI24:
	.cfi_def_cfa_offset 8
	movl	%esp, %ebp
	.cfi_offset 5, -8
.LCFI25:
	.cfi_def_cfa_register 5
	call	mcount
	.loc 1 305 0
	.loc 1 306 0
	flds	8(%ebp)
	flds	.LC16
	fmulp	%st, %st(1)
	fdivs	12(%ebp)
	.loc 1 307 0
	popl	%ebp
	ret
	.cfi_endproc
.LFE21:
	.size	_Z17fastdownlinespeedff, .-_Z17fastdownlinespeedff
	.text
.globl blendquintic
	.type	blendquintic, @function
blendquintic:
.LFB22:
	.loc 1 314 0
	.cfi_startproc
	.cfi_personality 0x0,__gxx_personality_v0
	pushl	%ebp
.LCFI26:
	.cfi_def_cfa_offset 8
	movl	%esp, %ebp
	.cfi_offset 5, -8
.LCFI27:
	.cfi_def_cfa_register 5
	pushl	%edi
	pushl	%esi
	pushl	%ebx
	subl	$332, %esp
	call	mcount
	.loc 1 314 0
.LBB19:
	.loc 1 318 0
	movl	$0, -32(%ebp)
	jmp	.L55
	.cfi_offset 3, -20
	.cfi_offset 6, -16
	.cfi_offset 7, -12
.L56:
	.loc 1 319 0
	movl	-32(%ebp), %eax
	movl	-32(%ebp), %ecx
	movl	16(%ebp), %edx
	movl	(%edx,%ecx,4), %edx
	movl	%edx, -204(%ebp,%eax,4)
	.loc 1 320 0
	movl	-32(%ebp), %ecx
	movl	-32(%ebp), %edx
	movl	20(%ebp), %eax
	movl	(%eax,%edx,4), %eax
	leal	6(%ecx), %edx
	movl	%eax, -204(%ebp,%edx,4)
	.loc 1 321 0
	movl	-32(%ebp), %ecx
	movl	-32(%ebp), %edx
	movl	24(%ebp), %eax
	flds	(%eax,%edx,4)
	flds	.LC18
	fmulp	%st, %st(1)
	leal	12(%ecx), %eax
	fstps	-204(%ebp,%eax,4)
	.loc 1 322 0
	movl	-32(%ebp), %ebx
	movl	-32(%ebp), %edx
	movl	16(%ebp), %eax
	flds	(%eax,%edx,4)
	flds	.LC19
	fmulp	%st, %st(1)
	movl	-32(%ebp), %edx
	movl	28(%ebp), %eax
	flds	(%eax,%edx,4)
	flds	.LC20
	fmulp	%st, %st(1)
	faddp	%st, %st(1)
	movl	-32(%ebp), %edx
	movl	20(%ebp), %eax
	flds	(%eax,%edx,4)
	flds	.LC21
	fmulp	%st, %st(1)
	movl	-32(%ebp), %edx
	movl	32(%ebp), %eax
	flds	(%eax,%edx,4)
	flds	.LC22
	fmulp	%st, %st(1)
	faddp	%st, %st(1)
	flds	40(%ebp)
	flds	.LC9
	fmulp	%st, %st(1)
	movl	-32(%ebp), %edx
	movl	24(%ebp), %eax
	flds	(%eax,%edx,4)
	fmulp	%st, %st(1)
	faddp	%st, %st(1)
	movl	-32(%ebp), %edx
	movl	36(%ebp), %eax
	flds	(%eax,%edx,4)
	fmuls	40(%ebp)
	faddp	%st, %st(1)
	fmuls	40(%ebp)
	faddp	%st, %st(1)
	fstpl	-304(%ebp)
	flds	40(%ebp)
	fldl	.LC23
	fstpl	8(%esp)
	fstpl	(%esp)
	call	pow
	fadd	%st(0), %st
	fdivrl	-304(%ebp)
	fstps	-220(%ebp)
	flds	-220(%ebp)
	leal	18(%ebx), %eax
	fstps	-204(%ebp,%eax,4)
	.loc 1 323 0
	movl	-32(%ebp), %ebx
	movl	-32(%ebp), %edx
	movl	16(%ebp), %eax
	flds	(%eax,%edx,4)
	flds	.LC24
	fmulp	%st, %st(1)
	movl	-32(%ebp), %edx
	movl	28(%ebp), %eax
	flds	(%eax,%edx,4)
	flds	.LC25
	fmulp	%st, %st(1)
	faddp	%st, %st(1)
	movl	-32(%ebp), %edx
	movl	20(%ebp), %eax
	flds	(%eax,%edx,4)
	flds	.LC26
	fmulp	%st, %st(1)
	movl	-32(%ebp), %edx
	movl	32(%ebp), %eax
	flds	(%eax,%edx,4)
	flds	.LC27
	fmulp	%st, %st(1)
	faddp	%st, %st(1)
	flds	40(%ebp)
	flds	.LC15
	fmulp	%st, %st(1)
	movl	-32(%ebp), %edx
	movl	24(%ebp), %eax
	flds	(%eax,%edx,4)
	fmulp	%st, %st(1)
	faddp	%st, %st(1)
	flds	40(%ebp)
	flds	.LC16
	fmulp	%st, %st(1)
	movl	-32(%ebp), %edx
	movl	36(%ebp), %eax
	flds	(%eax,%edx,4)
	fmulp	%st, %st(1)
	faddp	%st, %st(1)
	fmuls	40(%ebp)
	faddp	%st, %st(1)
	fstpl	-296(%ebp)
	flds	40(%ebp)
	fldl	.LC28
	fstpl	8(%esp)
	fstpl	(%esp)
	call	pow
	fadd	%st(0), %st
	fdivrl	-296(%ebp)
	fstps	-220(%ebp)
	flds	-220(%ebp)
	leal	24(%ebx), %eax
	fstps	-204(%ebp,%eax,4)
	.loc 1 324 0
	movl	-32(%ebp), %ebx
	movl	-32(%ebp), %edx
	movl	16(%ebp), %eax
	flds	(%eax,%edx,4)
	flds	.LC29
	fmulp	%st, %st(1)
	movl	-32(%ebp), %edx
	movl	28(%ebp), %eax
	flds	(%eax,%edx,4)
	flds	.LC21
	fmulp	%st, %st(1)
	faddp	%st, %st(1)
	movl	-32(%ebp), %edx
	movl	20(%ebp), %eax
	flds	(%eax,%edx,4)
	movl	-32(%ebp), %edx
	movl	32(%ebp), %eax
	flds	(%eax,%edx,4)
	faddp	%st, %st(1)
	flds	.LC30
	fmulp	%st, %st(1)
	movl	-32(%ebp), %edx
	movl	24(%ebp), %eax
	flds	(%eax,%edx,4)
	movl	-32(%ebp), %edx
	movl	36(%ebp), %eax
	flds	(%eax,%edx,4)
	fsubrp	%st, %st(1)
	fmuls	40(%ebp)
	faddp	%st, %st(1)
	fmuls	40(%ebp)
	faddp	%st, %st(1)
	fchs
	fstpl	-288(%ebp)
	flds	40(%ebp)
	fldl	.LC31
	fstpl	8(%esp)
	fstpl	(%esp)
	call	pow
	fadd	%st(0), %st
	fdivrl	-288(%ebp)
	fstps	-220(%ebp)
	flds	-220(%ebp)
	leal	30(%ebx), %eax
	fstps	-204(%ebp,%eax,4)
	.loc 1 318 0
	addl	$1, -32(%ebp)
.L55:
	cmpl	$4, -32(%ebp)
	setle	%al
	testb	%al, %al
	jne	.L56
	.loc 1 326 0
	movl	$0, -28(%ebp)
	jmp	.L57
.L62:
.LBB20:
	.loc 1 327 0
	fildl	-28(%ebp)
	fmuls	40(%ebp)
	fildl	44(%ebp)
	fdivrp	%st, %st(1)
	fstps	-36(%ebp)
	.loc 1 328 0
	movl	-28(%ebp), %eax
	cmpl	44(%ebp), %eax
	jne	.L58
	.loc 1 329 0
	cmpl	$0, 60(%ebp)
	je	.L64
.L58:
	.loc 1 331 0
	movl	$0, -32(%ebp)
	jmp	.L60
.L61:
	.loc 1 332 0
	movl	-32(%ebp), %ebx
	movl	-32(%ebp), %eax
	addl	$30, %eax
	flds	-204(%ebp,%eax,4)
	fstpl	-280(%ebp)
	flds	-36(%ebp)
	fldl	.LC31
	fstpl	8(%esp)
	fstpl	(%esp)
	call	pow
	fldl	-280(%ebp)
	fmulp	%st, %st(1)
	fstpl	-272(%ebp)
	movl	-32(%ebp), %eax
	addl	$24, %eax
	flds	-204(%ebp,%eax,4)
	fstpl	-264(%ebp)
	flds	-36(%ebp)
	fldl	.LC28
	fstpl	8(%esp)
	fstpl	(%esp)
	call	pow
	fmull	-264(%ebp)
	fldl	-272(%ebp)
	faddp	%st, %st(1)
	fstpl	-256(%ebp)
	movl	-32(%ebp), %eax
	addl	$18, %eax
	flds	-204(%ebp,%eax,4)
	fstpl	-248(%ebp)
	flds	-36(%ebp)
	fldl	.LC23
	fstpl	8(%esp)
	fstpl	(%esp)
	call	pow
	fmull	-248(%ebp)
	fldl	-256(%ebp)
	faddp	%st, %st(1)
	fstpl	-240(%ebp)
	movl	-32(%ebp), %eax
	addl	$12, %eax
	flds	-204(%ebp,%eax,4)
	fstpl	-232(%ebp)
	flds	-36(%ebp)
	fldl	.LC32
	fstpl	8(%esp)
	fstpl	(%esp)
	call	pow
	fmull	-232(%ebp)
	fldl	-240(%ebp)
	faddp	%st, %st(1)
	movl	-32(%ebp), %eax
	addl	$6, %eax
	flds	-204(%ebp,%eax,4)
	fmuls	-36(%ebp)
	faddp	%st, %st(1)
	movl	-32(%ebp), %eax
	flds	-204(%ebp,%eax,4)
	faddp	%st, %st(1)
	fstps	-220(%ebp)
	flds	-220(%ebp)
	fstps	-60(%ebp,%ebx,4)
	.loc 1 331 0
	addl	$1, -32(%ebp)
.L60:
	cmpl	$4, -32(%ebp)
	setle	%al
	testb	%al, %al
	jne	.L61
	.loc 1 334 0
	movl	-44(%ebp), %esi
	movl	-48(%ebp), %ebx
	movl	-52(%ebp), %ecx
	movl	-56(%ebp), %edx
	movl	-60(%ebp), %eax
	movl	48(%ebp), %edi
	movl	%edi, 28(%esp)
	movl	$0x00000000, %edi
	movl	%edi, 24(%esp)
	movl	%esi, 20(%esp)
	movl	%ebx, 16(%esp)
	movl	%ecx, 12(%esp)
	movl	%edx, 8(%esp)
	movl	%eax, 4(%esp)
	movl	52(%ebp), %eax
	movl	%eax, (%esp)
	call	tmpnComputeFKlogic
	.loc 1 335 0
	movl	12(%ebp), %eax
	movl	(%eax), %edx
	movl	52(%ebp), %eax
	movl	1316(%eax), %ecx
	movl	8(%ebp), %ebx
	movl	%edx, %eax
	addl	%eax, %eax
	addl	%edx, %eax
	sall	$4, %eax
	leal	(%ebx,%eax), %eax
	addl	$320, %eax
	movl	%ecx, (%eax)
	.loc 1 336 0
	movl	12(%ebp), %eax
	movl	(%eax), %edx
	movl	52(%ebp), %eax
	movl	1320(%eax), %ecx
	movl	8(%ebp), %ebx
	movl	%edx, %eax
	addl	%eax, %eax
	addl	%edx, %eax
	sall	$4, %eax
	leal	(%ebx,%eax), %eax
	addl	$324, %eax
	movl	%ecx, (%eax)
	.loc 1 337 0
	movl	12(%ebp), %eax
	movl	(%eax), %edx
	movl	52(%ebp), %eax
	movl	1324(%eax), %ecx
	movl	8(%ebp), %ebx
	movl	%edx, %eax
	addl	%eax, %eax
	addl	%edx, %eax
	sall	$4, %eax
	leal	(%ebx,%eax), %eax
	addl	$328, %eax
	movl	%ecx, (%eax)
	.loc 1 338 0
	movl	12(%ebp), %eax
	movl	(%eax), %edx
	movl	52(%ebp), %eax
	movl	1328(%eax), %ecx
	movl	8(%ebp), %ebx
	movl	%edx, %eax
	addl	%eax, %eax
	addl	%edx, %eax
	sall	$4, %eax
	leal	(%ebx,%eax), %eax
	addl	$332, %eax
	movl	%ecx, (%eax)
	.loc 1 339 0
	movl	12(%ebp), %eax
	movl	(%eax), %edx
	movl	52(%ebp), %eax
	movl	1332(%eax), %ecx
	movl	8(%ebp), %ebx
	movl	%edx, %eax
	addl	%eax, %eax
	addl	%edx, %eax
	sall	$4, %eax
	leal	(%ebx,%eax), %eax
	addl	$336, %eax
	movl	%ecx, (%eax)
	.loc 1 340 0
	movl	12(%ebp), %eax
	movl	(%eax), %edx
	movl	52(%ebp), %eax
	movl	1336(%eax), %ecx
	movl	8(%ebp), %ebx
	movl	%edx, %eax
	addl	%eax, %eax
	addl	%edx, %eax
	sall	$4, %eax
	leal	(%ebx,%eax), %eax
	addl	$340, %eax
	movl	%ecx, (%eax)
	.loc 1 341 0
	movl	12(%ebp), %eax
	movl	(%eax), %edx
	movl	8(%ebp), %ecx
	movl	%edx, %eax
	addl	%eax, %eax
	addl	%edx, %eax
	sall	$4, %eax
	leal	(%ecx,%eax), %eax
	leal	308(%eax), %edx
	movl	48(%ebp), %eax
	movl	%eax, (%edx)
	.loc 1 342 0
	movl	12(%ebp), %eax
	movl	(%eax), %edx
	fildl	56(%ebp)
	movl	8(%ebp), %ecx
	movl	%edx, %eax
	addl	%eax, %eax
	addl	%edx, %eax
	sall	$4, %eax
	leal	(%ecx,%eax), %eax
	addl	$316, %eax
	fstps	(%eax)
	.loc 1 343 0
	movl	12(%ebp), %eax
	movl	(%eax), %edx
	movl	8(%ebp), %ecx
	movl	%edx, %eax
	addl	%eax, %eax
	addl	%edx, %eax
	sall	$4, %eax
	leal	(%ecx,%eax), %eax
	addl	$312, %eax
	movl	$0, (%eax)
	.loc 1 344 0
	movl	12(%ebp), %eax
	movl	(%eax), %edx
	movl	8(%ebp), %ecx
	movl	%edx, %eax
	addl	%eax, %eax
	addl	%edx, %eax
	sall	$4, %eax
	leal	(%ecx,%eax), %eax
	leal	344(%eax), %edx
	movl	$0x41200000, %eax
	movl	%eax, (%edx)
	.loc 1 345 0
	movl	12(%ebp), %eax
	movl	(%eax), %eax
	leal	1(%eax), %edx
	movl	12(%ebp), %eax
	movl	%edx, (%eax)
.LBE20:
	.loc 1 326 0
	addl	$1, -28(%ebp)
.L57:
	movl	44(%ebp), %eax
	addl	$1, %eax
	cmpl	-28(%ebp), %eax
	setg	%al
	testb	%al, %al
	jne	.L62
	jmp	.L63
.L64:
.LBB21:
	.loc 1 329 0
	nop
.L63:
.LBE21:
.LBE19:
	.loc 1 347 0
	addl	$332, %esp
	popl	%ebx
	popl	%esi
	popl	%edi
	popl	%ebp
	ret
	.cfi_endproc
.LFE22:
	.size	blendquintic, .-blendquintic
.globl blendquinticmaxvel
	.type	blendquinticmaxvel, @function
blendquinticmaxvel:
.LFB23:
	.loc 1 350 0
	.cfi_startproc
	.cfi_personality 0x0,__gxx_personality_v0
	pushl	%ebp
.LCFI28:
	.cfi_def_cfa_offset 8
	movl	%esp, %ebp
	.cfi_offset 5, -8
.LCFI29:
	.cfi_def_cfa_register 5
	pushl	%ebx
	subl	$308, %esp
	call	mcount
	.loc 1 350 0
.LBB22:
	.loc 1 352 0
	movl	$100, -20(%ebp)
	.loc 1 355 0
	leal	-76(%ebp), %edx
	movl	$0, %ecx
	movl	$24, %eax
	movl	%eax, %ebx
	.cfi_offset 3, -12
	andl	$-4, %ebx
	movl	$0, %eax
.L66:
	movl	%ecx, (%edx,%eax)
	addl	$4, %eax
	cmpl	%ebx, %eax
	jb	.L66
	addl	%eax, %edx
	.loc 1 356 0
	movl	$0, -16(%ebp)
	jmp	.L68
.L69:
	.loc 1 357 0
	movl	-16(%ebp), %eax
	movl	-16(%ebp), %ecx
	movl	12(%ebp), %edx
	movl	(%edx,%ecx,4), %edx
	movl	%edx, -196(%ebp,%eax,4)
	.loc 1 358 0
	movl	-16(%ebp), %ecx
	movl	-16(%ebp), %edx
	movl	16(%ebp), %eax
	movl	(%eax,%edx,4), %eax
	leal	6(%ecx), %edx
	movl	%eax, -196(%ebp,%edx,4)
	.loc 1 359 0
	movl	-16(%ebp), %ebx
	movl	-16(%ebp), %edx
	movl	8(%ebp), %eax
	flds	(%eax,%edx,4)
	flds	.LC19
	fmulp	%st, %st(1)
	movl	-16(%ebp), %edx
	movl	20(%ebp), %eax
	flds	(%eax,%edx,4)
	flds	.LC20
	fmulp	%st, %st(1)
	faddp	%st, %st(1)
	movl	-16(%ebp), %edx
	movl	12(%ebp), %eax
	flds	(%eax,%edx,4)
	flds	.LC21
	fmulp	%st, %st(1)
	movl	-16(%ebp), %edx
	movl	24(%ebp), %eax
	flds	(%eax,%edx,4)
	flds	.LC22
	fmulp	%st, %st(1)
	faddp	%st, %st(1)
	flds	32(%ebp)
	flds	.LC9
	fmulp	%st, %st(1)
	movl	-16(%ebp), %edx
	movl	16(%ebp), %eax
	flds	(%eax,%edx,4)
	fmulp	%st, %st(1)
	faddp	%st, %st(1)
	movl	-16(%ebp), %edx
	movl	28(%ebp), %eax
	flds	(%eax,%edx,4)
	fmuls	32(%ebp)
	faddp	%st, %st(1)
	fmuls	32(%ebp)
	faddp	%st, %st(1)
	flds	.LC15
	fmulp	%st, %st(1)
	fstpl	-272(%ebp)
	flds	32(%ebp)
	fldl	.LC23
	fstpl	8(%esp)
	fstpl	(%esp)
	call	pow
	fadd	%st(0), %st
	fdivrl	-272(%ebp)
	fstps	-204(%ebp)
	flds	-204(%ebp)
	leal	12(%ebx), %eax
	fstps	-196(%ebp,%eax,4)
	.loc 1 360 0
	movl	-16(%ebp), %ebx
	movl	-16(%ebp), %edx
	movl	8(%ebp), %eax
	flds	(%eax,%edx,4)
	flds	.LC24
	fmulp	%st, %st(1)
	movl	-16(%ebp), %edx
	movl	20(%ebp), %eax
	flds	(%eax,%edx,4)
	flds	.LC25
	fmulp	%st, %st(1)
	faddp	%st, %st(1)
	movl	-16(%ebp), %edx
	movl	12(%ebp), %eax
	flds	(%eax,%edx,4)
	flds	.LC26
	fmulp	%st, %st(1)
	movl	-16(%ebp), %edx
	movl	24(%ebp), %eax
	flds	(%eax,%edx,4)
	flds	.LC27
	fmulp	%st, %st(1)
	faddp	%st, %st(1)
	flds	32(%ebp)
	flds	.LC15
	fmulp	%st, %st(1)
	movl	-16(%ebp), %edx
	movl	16(%ebp), %eax
	flds	(%eax,%edx,4)
	fmulp	%st, %st(1)
	faddp	%st, %st(1)
	flds	32(%ebp)
	flds	.LC16
	fmulp	%st, %st(1)
	movl	-16(%ebp), %edx
	movl	28(%ebp), %eax
	flds	(%eax,%edx,4)
	fmulp	%st, %st(1)
	faddp	%st, %st(1)
	fmuls	32(%ebp)
	faddp	%st, %st(1)
	fadd	%st(0), %st
	fstpl	-264(%ebp)
	flds	32(%ebp)
	fldl	.LC28
	fstpl	8(%esp)
	fstpl	(%esp)
	call	pow
	fdivrl	-264(%ebp)
	fstps	-204(%ebp)
	flds	-204(%ebp)
	leal	18(%ebx), %eax
	fstps	-196(%ebp,%eax,4)
	.loc 1 361 0
	movl	-16(%ebp), %ebx
	movl	-16(%ebp), %edx
	movl	8(%ebp), %eax
	flds	(%eax,%edx,4)
	flds	.LC29
	fmulp	%st, %st(1)
	movl	-16(%ebp), %edx
	movl	20(%ebp), %eax
	flds	(%eax,%edx,4)
	flds	.LC21
	fmulp	%st, %st(1)
	faddp	%st, %st(1)
	movl	-16(%ebp), %edx
	movl	12(%ebp), %eax
	flds	(%eax,%edx,4)
	movl	-16(%ebp), %edx
	movl	24(%ebp), %eax
	flds	(%eax,%edx,4)
	faddp	%st, %st(1)
	flds	.LC30
	fmulp	%st, %st(1)
	movl	-16(%ebp), %edx
	movl	16(%ebp), %eax
	flds	(%eax,%edx,4)
	movl	-16(%ebp), %edx
	movl	28(%ebp), %eax
	flds	(%eax,%edx,4)
	fsubrp	%st, %st(1)
	fmuls	32(%ebp)
	faddp	%st, %st(1)
	fmuls	32(%ebp)
	faddp	%st, %st(1)
	flds	.LC33
	fmulp	%st, %st(1)
	fstpl	-256(%ebp)
	flds	32(%ebp)
	fldl	.LC31
	fstpl	8(%esp)
	fstpl	(%esp)
	call	pow
	fadd	%st(0), %st
	fdivrl	-256(%ebp)
	fstps	-204(%ebp)
	flds	-204(%ebp)
	leal	24(%ebx), %eax
	fstps	-196(%ebp,%eax,4)
	.loc 1 356 0
	addl	$1, -16(%ebp)
.L68:
	cmpl	$4, -16(%ebp)
	setle	%al
	testb	%al, %al
	jne	.L69
	.loc 1 363 0
	movl	$0, -12(%ebp)
	jmp	.L70
.L74:
.LBB23:
	.loc 1 364 0
	fildl	-12(%ebp)
	fmuls	32(%ebp)
	fildl	-20(%ebp)
	fdivrp	%st, %st(1)
	fstps	-24(%ebp)
	.loc 1 365 0
	movl	$0, -16(%ebp)
	jmp	.L71
.L73:
	.loc 1 366 0
	movl	-16(%ebp), %ebx
	movl	-16(%ebp), %eax
	addl	$24, %eax
	flds	-196(%ebp,%eax,4)
	fstpl	-248(%ebp)
	flds	-24(%ebp)
	fldl	.LC28
	fstpl	8(%esp)
	fstpl	(%esp)
	call	pow
	fldl	-248(%ebp)
	fmulp	%st, %st(1)
	fstpl	-240(%ebp)
	movl	-16(%ebp), %eax
	addl	$18, %eax
	flds	-196(%ebp,%eax,4)
	fstpl	-232(%ebp)
	flds	-24(%ebp)
	fldl	.LC23
	fstpl	8(%esp)
	fstpl	(%esp)
	call	pow
	fmull	-232(%ebp)
	fldl	-240(%ebp)
	faddp	%st, %st(1)
	fstpl	-224(%ebp)
	movl	-16(%ebp), %eax
	addl	$12, %eax
	flds	-196(%ebp,%eax,4)
	fstpl	-216(%ebp)
	flds	-24(%ebp)
	fldl	.LC32
	fstpl	8(%esp)
	fstpl	(%esp)
	call	pow
	fmull	-216(%ebp)
	fldl	-224(%ebp)
	faddp	%st, %st(1)
	movl	-16(%ebp), %eax
	addl	$6, %eax
	flds	-196(%ebp,%eax,4)
	fmuls	-24(%ebp)
	faddp	%st, %st(1)
	movl	-16(%ebp), %eax
	flds	-196(%ebp,%eax,4)
	faddp	%st, %st(1)
	fabs
	fstps	-204(%ebp)
	flds	-204(%ebp)
	fstps	-52(%ebp,%ebx,4)
	.loc 1 367 0
	movl	-16(%ebp), %eax
	flds	-52(%ebp,%eax,4)
	movl	-16(%ebp), %eax
	flds	-76(%ebp,%eax,4)
	fxch	%st(1)
	fucompp
	fnstsw	%ax
	sahf
	seta	%al
	testb	%al, %al
	je	.L72
	movl	-16(%ebp), %eax
	movl	-16(%ebp), %edx
	movl	-52(%ebp,%edx,4), %edx
	movl	%edx, -76(%ebp,%eax,4)
.L72:
	.loc 1 365 0
	addl	$1, -16(%ebp)
.L71:
	cmpl	$4, -16(%ebp)
	setle	%al
	testb	%al, %al
	jne	.L73
.LBE23:
	.loc 1 363 0
	addl	$1, -12(%ebp)
.L70:
	movl	-20(%ebp), %eax
	addl	$1, %eax
	cmpl	-12(%ebp), %eax
	setg	%al
	testb	%al, %al
	jne	.L74
	.loc 1 370 0
	movl	$0x00000000, %eax
	movl	%eax, -28(%ebp)
	.loc 1 371 0
	movl	$0, -16(%ebp)
	jmp	.L75
.L77:
	.loc 1 372 0
	movl	-16(%ebp), %eax
	movl	-16(%ebp), %edx
	flds	-76(%ebp,%edx,4)
	movl	-16(%ebp), %ecx
	movl	36(%ebp), %edx
	flds	(%edx,%ecx,4)
	fdivrp	%st, %st(1)
	fstps	-52(%ebp,%eax,4)
	.loc 1 373 0
	movl	-16(%ebp), %eax
	flds	-52(%ebp,%eax,4)
	flds	-28(%ebp)
	fxch	%st(1)
	fucompp
	fnstsw	%ax
	sahf
	seta	%al
	testb	%al, %al
	je	.L76
	movl	-16(%ebp), %eax
	movl	-52(%ebp,%eax,4), %eax
	movl	%eax, -28(%ebp)
.L76:
	.loc 1 371 0
	addl	$1, -16(%ebp)
.L75:
	cmpl	$4, -16(%ebp)
	setle	%al
	testb	%al, %al
	jne	.L77
	.loc 1 375 0
	movl	-28(%ebp), %eax
	movl	%eax, -284(%ebp)
	flds	-284(%ebp)
.LBE22:
	.loc 1 376 0
	addl	$308, %esp
	popl	%ebx
	popl	%ebp
	ret
	.cfi_endproc
.LFE23:
	.size	blendquinticmaxvel, .-blendquinticmaxvel
.globl blendquinticmaxacc
	.type	blendquinticmaxacc, @function
blendquinticmaxacc:
.LFB24:
	.loc 1 379 0
	.cfi_startproc
	.cfi_personality 0x0,__gxx_personality_v0
	pushl	%ebp
.LCFI30:
	.cfi_def_cfa_offset 8
	movl	%esp, %ebp
	.cfi_offset 5, -8
.LCFI31:
	.cfi_def_cfa_register 5
	pushl	%ebx
	subl	$276, %esp
	call	mcount
	.loc 1 379 0
.LBB24:
	.loc 1 381 0
	movl	$60, -20(%ebp)
	.loc 1 382 0
	movl	$60, -24(%ebp)
	.loc 1 385 0
	leal	-88(%ebp), %edx
	movl	$0, %ecx
	movl	$24, %eax
	movl	%eax, %ebx
	.cfi_offset 3, -12
	andl	$-4, %ebx
	movl	$0, %eax
.L80:
	movl	%ecx, (%edx,%eax)
	addl	$4, %eax
	cmpl	%ebx, %eax
	jb	.L80
	addl	%eax, %edx
	.loc 1 387 0
	leal	-112(%ebp), %edx
	movl	$0, %ecx
	movl	$24, %eax
	movl	%eax, %ebx
	andl	$-4, %ebx
	movl	$0, %eax
.L82:
	movl	%ecx, (%edx,%eax)
	addl	$4, %eax
	cmpl	%ebx, %eax
	jb	.L82
	addl	%eax, %edx
	.loc 1 388 0
	movl	$0, -16(%ebp)
	jmp	.L84
.L85:
	.loc 1 389 0
	movl	-16(%ebp), %eax
	movl	-16(%ebp), %ecx
	movl	16(%ebp), %edx
	movl	(%edx,%ecx,4), %edx
	movl	%edx, -208(%ebp,%eax,4)
	.loc 1 390 0
	movl	-16(%ebp), %ebx
	movl	-16(%ebp), %edx
	movl	8(%ebp), %eax
	flds	(%eax,%edx,4)
	flds	.LC19
	fmulp	%st, %st(1)
	movl	-16(%ebp), %edx
	movl	20(%ebp), %eax
	flds	(%eax,%edx,4)
	flds	.LC20
	fmulp	%st, %st(1)
	faddp	%st, %st(1)
	movl	-16(%ebp), %edx
	movl	12(%ebp), %eax
	flds	(%eax,%edx,4)
	flds	.LC21
	fmulp	%st, %st(1)
	movl	-16(%ebp), %edx
	movl	24(%ebp), %eax
	flds	(%eax,%edx,4)
	flds	.LC22
	fmulp	%st, %st(1)
	faddp	%st, %st(1)
	flds	32(%ebp)
	flds	.LC9
	fmulp	%st, %st(1)
	movl	-16(%ebp), %edx
	movl	16(%ebp), %eax
	flds	(%eax,%edx,4)
	fmulp	%st, %st(1)
	faddp	%st, %st(1)
	movl	-16(%ebp), %edx
	movl	28(%ebp), %eax
	flds	(%eax,%edx,4)
	fmuls	32(%ebp)
	faddp	%st, %st(1)
	fmuls	32(%ebp)
	faddp	%st, %st(1)
	flds	.LC15
	fmulp	%st, %st(1)
	fstpl	-248(%ebp)
	flds	32(%ebp)
	fldl	.LC23
	fstpl	8(%esp)
	fstpl	(%esp)
	call	pow
	fdivrl	-248(%ebp)
	fstps	-220(%ebp)
	flds	-220(%ebp)
	leal	6(%ebx), %eax
	fstps	-208(%ebp,%eax,4)
	.loc 1 391 0
	movl	-16(%ebp), %ebx
	movl	-16(%ebp), %edx
	movl	8(%ebp), %eax
	flds	(%eax,%edx,4)
	flds	.LC24
	fmulp	%st, %st(1)
	movl	-16(%ebp), %edx
	movl	20(%ebp), %eax
	flds	(%eax,%edx,4)
	flds	.LC25
	fmulp	%st, %st(1)
	faddp	%st, %st(1)
	movl	-16(%ebp), %edx
	movl	12(%ebp), %eax
	flds	(%eax,%edx,4)
	flds	.LC26
	fmulp	%st, %st(1)
	movl	-16(%ebp), %edx
	movl	24(%ebp), %eax
	flds	(%eax,%edx,4)
	flds	.LC27
	fmulp	%st, %st(1)
	faddp	%st, %st(1)
	flds	32(%ebp)
	flds	.LC15
	fmulp	%st, %st(1)
	movl	-16(%ebp), %edx
	movl	16(%ebp), %eax
	flds	(%eax,%edx,4)
	fmulp	%st, %st(1)
	faddp	%st, %st(1)
	flds	32(%ebp)
	flds	.LC16
	fmulp	%st, %st(1)
	movl	-16(%ebp), %edx
	movl	28(%ebp), %eax
	flds	(%eax,%edx,4)
	fmulp	%st, %st(1)
	faddp	%st, %st(1)
	fmuls	32(%ebp)
	faddp	%st, %st(1)
	flds	.LC30
	fmulp	%st, %st(1)
	fstpl	-240(%ebp)
	flds	32(%ebp)
	fldl	.LC28
	fstpl	8(%esp)
	fstpl	(%esp)
	call	pow
	fdivrl	-240(%ebp)
	fstps	-220(%ebp)
	flds	-220(%ebp)
	leal	12(%ebx), %eax
	fstps	-208(%ebp,%eax,4)
	.loc 1 392 0
	movl	-16(%ebp), %ebx
	movl	-16(%ebp), %edx
	movl	8(%ebp), %eax
	flds	(%eax,%edx,4)
	flds	.LC29
	fmulp	%st, %st(1)
	movl	-16(%ebp), %edx
	movl	20(%ebp), %eax
	flds	(%eax,%edx,4)
	flds	.LC21
	fmulp	%st, %st(1)
	faddp	%st, %st(1)
	movl	-16(%ebp), %edx
	movl	12(%ebp), %eax
	flds	(%eax,%edx,4)
	movl	-16(%ebp), %edx
	movl	24(%ebp), %eax
	flds	(%eax,%edx,4)
	faddp	%st, %st(1)
	flds	.LC30
	fmulp	%st, %st(1)
	movl	-16(%ebp), %edx
	movl	16(%ebp), %eax
	flds	(%eax,%edx,4)
	movl	-16(%ebp), %edx
	movl	28(%ebp), %eax
	flds	(%eax,%edx,4)
	fsubrp	%st, %st(1)
	fmuls	32(%ebp)
	faddp	%st, %st(1)
	fmuls	32(%ebp)
	faddp	%st, %st(1)
	flds	.LC34
	fmulp	%st, %st(1)
	fstpl	-232(%ebp)
	flds	32(%ebp)
	fldl	.LC31
	fstpl	8(%esp)
	fstpl	(%esp)
	call	pow
	fdivrl	-232(%ebp)
	fstps	-220(%ebp)
	flds	-220(%ebp)
	leal	18(%ebx), %eax
	fstps	-208(%ebp,%eax,4)
	.loc 1 388 0
	addl	$1, -16(%ebp)
.L84:
	cmpl	$4, -16(%ebp)
	setle	%al
	testb	%al, %al
	jne	.L85
	.loc 1 394 0
	fildl	-20(%ebp)
	flds	32(%ebp)
	fdivp	%st, %st(1)
	fstps	-28(%ebp)
	.loc 1 395 0
	movl	$0, -12(%ebp)
	jmp	.L86
.L90:
.LBB25:
	.loc 1 396 0
	fildl	-12(%ebp)
	fmuls	-28(%ebp)
	fstps	-32(%ebp)
	.loc 1 397 0
	movl	$0, -16(%ebp)
	jmp	.L87
.L89:
	.loc 1 398 0
	movl	-16(%ebp), %eax
	movl	-16(%ebp), %edx
	addl	$18, %edx
	flds	-208(%ebp,%edx,4)
	fmuls	-32(%ebp)
	fmuls	-32(%ebp)
	fmuls	-32(%ebp)
	movl	-16(%ebp), %edx
	addl	$12, %edx
	flds	-208(%ebp,%edx,4)
	fmuls	-32(%ebp)
	fmuls	-32(%ebp)
	faddp	%st, %st(1)
	movl	-16(%ebp), %edx
	addl	$6, %edx
	flds	-208(%ebp,%edx,4)
	fmuls	-32(%ebp)
	faddp	%st, %st(1)
	movl	-16(%ebp), %edx
	flds	-208(%ebp,%edx,4)
	faddp	%st, %st(1)
	fabs
	fstps	-64(%ebp,%eax,4)
	.loc 1 399 0
	movl	-16(%ebp), %eax
	flds	-64(%ebp,%eax,4)
	movl	-16(%ebp), %eax
	flds	-88(%ebp,%eax,4)
	fxch	%st(1)
	fucompp
	fnstsw	%ax
	sahf
	seta	%al
	testb	%al, %al
	je	.L88
	.loc 1 400 0
	movl	-16(%ebp), %eax
	movl	-16(%ebp), %edx
	movl	-64(%ebp,%edx,4), %edx
	movl	%edx, -88(%ebp,%eax,4)
	.loc 1 401 0
	movl	-16(%ebp), %eax
	movl	-32(%ebp), %edx
	movl	%edx, -112(%ebp,%eax,4)
.L88:
	.loc 1 397 0
	addl	$1, -16(%ebp)
.L87:
	cmpl	$4, -16(%ebp)
	setle	%al
	testb	%al, %al
	jne	.L89
.LBE25:
	.loc 1 395 0
	addl	$1, -12(%ebp)
.L86:
	movl	-20(%ebp), %eax
	addl	$1, %eax
	cmpl	-12(%ebp), %eax
	setg	%al
	testb	%al, %al
	jne	.L90
	.loc 1 405 0
	movl	$0, -16(%ebp)
	jmp	.L91
.L96:
	.loc 1 408 0
	movl	-16(%ebp), %eax
	flds	-112(%ebp,%eax,4)
	fsubs	-28(%ebp)
	fldz
	fxch	%st(1)
	fucompp
	fnstsw	%ax
	sahf
	seta	%al
	testb	%al, %al
	je	.L92
	movl	-16(%ebp), %eax
	flds	-112(%ebp,%eax,4)
	fadds	-28(%ebp)
	flds	32(%ebp)
	fucompp
	fnstsw	%ax
	testb	$69, %ah
	sete	%al
	testb	%al, %al
	je	.L92
	.loc 1 409 0
	movl	$0, -12(%ebp)
	jmp	.L93
.L95:
.LBB26:
	.loc 1 410 0
	movl	-16(%ebp), %eax
	flds	-112(%ebp,%eax,4)
	fsubs	-28(%ebp)
	flds	-28(%ebp)
	fld	%st(0)
	faddp	%st, %st(1)
	fildl	-12(%ebp)
	fmulp	%st, %st(1)
	fildl	-24(%ebp)
	fdivrp	%st, %st(1)
	faddp	%st, %st(1)
	fstps	-36(%ebp)
	.loc 1 411 0
	movl	-16(%ebp), %eax
	movl	-16(%ebp), %edx
	addl	$18, %edx
	flds	-208(%ebp,%edx,4)
	fmuls	-36(%ebp)
	fmuls	-36(%ebp)
	fmuls	-36(%ebp)
	movl	-16(%ebp), %edx
	addl	$12, %edx
	flds	-208(%ebp,%edx,4)
	fmuls	-36(%ebp)
	fmuls	-36(%ebp)
	faddp	%st, %st(1)
	movl	-16(%ebp), %edx
	addl	$6, %edx
	flds	-208(%ebp,%edx,4)
	fmuls	-36(%ebp)
	faddp	%st, %st(1)
	movl	-16(%ebp), %edx
	flds	-208(%ebp,%edx,4)
	faddp	%st, %st(1)
	fabs
	fstps	-64(%ebp,%eax,4)
	.loc 1 412 0
	movl	-16(%ebp), %eax
	flds	-64(%ebp,%eax,4)
	movl	-16(%ebp), %eax
	flds	-88(%ebp,%eax,4)
	fxch	%st(1)
	fucompp
	fnstsw	%ax
	sahf
	seta	%al
	testb	%al, %al
	je	.L94
	.loc 1 413 0
	movl	-16(%ebp), %eax
	movl	-16(%ebp), %edx
	movl	-64(%ebp,%edx,4), %edx
	movl	%edx, -88(%ebp,%eax,4)
.L94:
.LBE26:
	.loc 1 409 0
	addl	$1, -12(%ebp)
.L93:
	movl	-24(%ebp), %eax
	addl	$1, %eax
	cmpl	-12(%ebp), %eax
	setg	%al
	testb	%al, %al
	jne	.L95
.L92:
	.loc 1 405 0
	addl	$1, -16(%ebp)
.L91:
	cmpl	$4, -16(%ebp)
	setle	%al
	testb	%al, %al
	jne	.L96
	.loc 1 422 0
	movl	$0x00000000, %eax
	movl	%eax, -40(%ebp)
	.loc 1 423 0
	movl	$0, -16(%ebp)
	jmp	.L97
.L99:
	.loc 1 425 0
	movl	-16(%ebp), %eax
	movl	-16(%ebp), %edx
	flds	-88(%ebp,%edx,4)
	movl	-16(%ebp), %ecx
	movl	36(%ebp), %edx
	flds	(%edx,%ecx,4)
	fdivrp	%st, %st(1)
	fstps	-64(%ebp,%eax,4)
	.loc 1 426 0
	movl	-16(%ebp), %eax
	flds	-64(%ebp,%eax,4)
	flds	-40(%ebp)
	fxch	%st(1)
	fucompp
	fnstsw	%ax
	sahf
	seta	%al
	testb	%al, %al
	je	.L98
	movl	-16(%ebp), %eax
	movl	-64(%ebp,%eax,4), %eax
	movl	%eax, -40(%ebp)
.L98:
	.loc 1 423 0
	addl	$1, -16(%ebp)
.L97:
	cmpl	$4, -16(%ebp)
	setle	%al
	testb	%al, %al
	jne	.L99
	.loc 1 428 0
	movl	-40(%ebp), %eax
	movl	%eax, -252(%ebp)
	flds	-252(%ebp)
.LBE24:
	.loc 1 429 0
	addl	$276, %esp
	popl	%ebx
	popl	%ebp
	ret
	.cfi_endproc
.LFE24:
	.size	blendquinticmaxacc, .-blendquinticmaxacc
.globl blendcubic
	.type	blendcubic, @function
blendcubic:
.LFB25:
	.loc 1 438 0
	.cfi_startproc
	.cfi_personality 0x0,__gxx_personality_v0
	pushl	%ebp
.LCFI32:
	.cfi_def_cfa_offset 8
	movl	%esp, %ebp
	.cfi_offset 5, -8
.LCFI33:
	.cfi_def_cfa_register 5
	pushl	%edi
	pushl	%esi
	pushl	%ebx
	subl	$204, %esp
	call	mcount
	.loc 1 438 0
.LBB27:
	.loc 1 442 0
	movl	$0, -32(%ebp)
	jmp	.L102
	.cfi_offset 3, -20
	.cfi_offset 6, -16
	.cfi_offset 7, -12
.L103:
	.loc 1 443 0
	movl	-32(%ebp), %eax
	movl	-32(%ebp), %ecx
	movl	16(%ebp), %edx
	movl	(%edx,%ecx,4), %edx
	movl	%edx, -164(%ebp,%eax,4)
	.loc 1 444 0
	movl	-32(%ebp), %ecx
	movl	-32(%ebp), %edx
	movl	20(%ebp), %eax
	movl	(%eax,%edx,4), %eax
	leal	6(%ecx), %edx
	movl	%eax, -164(%ebp,%edx,4)
	.loc 1 445 0
	movl	-32(%ebp), %ecx
	movl	-32(%ebp), %edx
	movl	16(%ebp), %eax
	flds	(%eax,%edx,4)
	flds	.LC15
	fmulp	%st, %st(1)
	movl	-32(%ebp), %edx
	movl	24(%ebp), %eax
	flds	(%eax,%edx,4)
	flds	.LC9
	fmulp	%st, %st(1)
	faddp	%st, %st(1)
	movl	-32(%ebp), %edx
	movl	20(%ebp), %eax
	flds	(%eax,%edx,4)
	fadd	%st(0), %st
	fmuls	32(%ebp)
	faddp	%st, %st(1)
	movl	-32(%ebp), %edx
	movl	28(%ebp), %eax
	flds	(%eax,%edx,4)
	fmuls	32(%ebp)
	faddp	%st, %st(1)
	fchs
	flds	32(%ebp)
	fmuls	32(%ebp)
	fdivrp	%st, %st(1)
	fstps	-172(%ebp)
	flds	-172(%ebp)
	leal	12(%ecx), %eax
	fstps	-164(%ebp,%eax,4)
	.loc 1 446 0
	movl	-32(%ebp), %ecx
	movl	-32(%ebp), %edx
	movl	20(%ebp), %eax
	flds	(%eax,%edx,4)
	fchs
	fmuls	32(%ebp)
	movl	-32(%ebp), %edx
	movl	28(%ebp), %eax
	flds	(%eax,%edx,4)
	fmuls	32(%ebp)
	fsubrp	%st, %st(1)
	movl	-32(%ebp), %edx
	movl	16(%ebp), %eax
	flds	(%eax,%edx,4)
	flds	.LC16
	fmulp	%st, %st(1)
	faddp	%st, %st(1)
	movl	-32(%ebp), %edx
	movl	24(%ebp), %eax
	flds	(%eax,%edx,4)
	fadd	%st(0), %st
	faddp	%st, %st(1)
	fchs
	flds	32(%ebp)
	fmuls	32(%ebp)
	fmuls	32(%ebp)
	fdivrp	%st, %st(1)
	fstps	-172(%ebp)
	flds	-172(%ebp)
	leal	18(%ecx), %eax
	fstps	-164(%ebp,%eax,4)
	.loc 1 442 0
	addl	$1, -32(%ebp)
.L102:
	cmpl	$4, -32(%ebp)
	setle	%al
	testb	%al, %al
	jne	.L103
	.loc 1 448 0
	movl	$0, -28(%ebp)
	jmp	.L104
.L109:
.LBB28:
	.loc 1 449 0
	fildl	-28(%ebp)
	fmuls	32(%ebp)
	fildl	36(%ebp)
	fdivrp	%st, %st(1)
	fstps	-36(%ebp)
	.loc 1 451 0
	movl	-28(%ebp), %eax
	cmpl	36(%ebp), %eax
	jne	.L105
	.loc 1 452 0
	cmpl	$0, 52(%ebp)
	je	.L111
.L105:
	.loc 1 454 0
	flds	-36(%ebp)
	fmuls	-36(%ebp)
	fstps	-40(%ebp)
	.loc 1 455 0
	flds	-40(%ebp)
	fmuls	-36(%ebp)
	fstps	-44(%ebp)
	.loc 1 456 0
	movl	$0, -32(%ebp)
	jmp	.L107
.L108:
	.loc 1 457 0
	movl	-32(%ebp), %eax
	movl	-32(%ebp), %edx
	addl	$18, %edx
	flds	-164(%ebp,%edx,4)
	fmuls	-44(%ebp)
	movl	-32(%ebp), %edx
	addl	$12, %edx
	flds	-164(%ebp,%edx,4)
	fmuls	-40(%ebp)
	faddp	%st, %st(1)
	movl	-32(%ebp), %edx
	addl	$6, %edx
	flds	-164(%ebp,%edx,4)
	fmuls	-36(%ebp)
	faddp	%st, %st(1)
	movl	-32(%ebp), %edx
	flds	-164(%ebp,%edx,4)
	faddp	%st, %st(1)
	fstps	-68(%ebp,%eax,4)
	.loc 1 456 0
	addl	$1, -32(%ebp)
.L107:
	cmpl	$4, -32(%ebp)
	setle	%al
	testb	%al, %al
	jne	.L108
	.loc 1 459 0
	movl	-52(%ebp), %esi
	movl	-56(%ebp), %ebx
	movl	-60(%ebp), %ecx
	movl	-64(%ebp), %edx
	movl	-68(%ebp), %eax
	movl	40(%ebp), %edi
	movl	%edi, 28(%esp)
	movl	$0x00000000, %edi
	movl	%edi, 24(%esp)
	movl	%esi, 20(%esp)
	movl	%ebx, 16(%esp)
	movl	%ecx, 12(%esp)
	movl	%edx, 8(%esp)
	movl	%eax, 4(%esp)
	movl	44(%ebp), %eax
	movl	%eax, (%esp)
	call	tmpnComputeFKlogic
	.loc 1 460 0
	movl	12(%ebp), %eax
	movl	(%eax), %edx
	movl	44(%ebp), %eax
	movl	1316(%eax), %ecx
	movl	8(%ebp), %ebx
	movl	%edx, %eax
	addl	%eax, %eax
	addl	%edx, %eax
	sall	$4, %eax
	leal	(%ebx,%eax), %eax
	addl	$320, %eax
	movl	%ecx, (%eax)
	.loc 1 461 0
	movl	12(%ebp), %eax
	movl	(%eax), %edx
	movl	44(%ebp), %eax
	movl	1320(%eax), %ecx
	movl	8(%ebp), %ebx
	movl	%edx, %eax
	addl	%eax, %eax
	addl	%edx, %eax
	sall	$4, %eax
	leal	(%ebx,%eax), %eax
	addl	$324, %eax
	movl	%ecx, (%eax)
	.loc 1 462 0
	movl	12(%ebp), %eax
	movl	(%eax), %edx
	movl	44(%ebp), %eax
	movl	1324(%eax), %ecx
	movl	8(%ebp), %ebx
	movl	%edx, %eax
	addl	%eax, %eax
	addl	%edx, %eax
	sall	$4, %eax
	leal	(%ebx,%eax), %eax
	addl	$328, %eax
	movl	%ecx, (%eax)
	.loc 1 463 0
	movl	12(%ebp), %eax
	movl	(%eax), %edx
	movl	44(%ebp), %eax
	movl	1328(%eax), %ecx
	movl	8(%ebp), %ebx
	movl	%edx, %eax
	addl	%eax, %eax
	addl	%edx, %eax
	sall	$4, %eax
	leal	(%ebx,%eax), %eax
	addl	$332, %eax
	movl	%ecx, (%eax)
	.loc 1 464 0
	movl	12(%ebp), %eax
	movl	(%eax), %edx
	movl	44(%ebp), %eax
	movl	1332(%eax), %ecx
	movl	8(%ebp), %ebx
	movl	%edx, %eax
	addl	%eax, %eax
	addl	%edx, %eax
	sall	$4, %eax
	leal	(%ebx,%eax), %eax
	addl	$336, %eax
	movl	%ecx, (%eax)
	.loc 1 465 0
	movl	12(%ebp), %eax
	movl	(%eax), %edx
	movl	44(%ebp), %eax
	movl	1336(%eax), %ecx
	movl	8(%ebp), %ebx
	movl	%edx, %eax
	addl	%eax, %eax
	addl	%edx, %eax
	sall	$4, %eax
	leal	(%ebx,%eax), %eax
	addl	$340, %eax
	movl	%ecx, (%eax)
	.loc 1 466 0
	movl	12(%ebp), %eax
	movl	(%eax), %edx
	movl	8(%ebp), %ecx
	movl	%edx, %eax
	addl	%eax, %eax
	addl	%edx, %eax
	sall	$4, %eax
	leal	(%ecx,%eax), %eax
	leal	308(%eax), %edx
	movl	40(%ebp), %eax
	movl	%eax, (%edx)
	.loc 1 467 0
	movl	12(%ebp), %eax
	movl	(%eax), %edx
	fildl	48(%ebp)
	movl	8(%ebp), %ecx
	movl	%edx, %eax
	addl	%eax, %eax
	addl	%edx, %eax
	sall	$4, %eax
	leal	(%ecx,%eax), %eax
	addl	$316, %eax
	fstps	(%eax)
	.loc 1 468 0
	movl	12(%ebp), %eax
	movl	(%eax), %edx
	movl	8(%ebp), %ecx
	movl	%edx, %eax
	addl	%eax, %eax
	addl	%edx, %eax
	sall	$4, %eax
	leal	(%ecx,%eax), %eax
	addl	$312, %eax
	movl	$0, (%eax)
	.loc 1 469 0
	movl	12(%ebp), %eax
	movl	(%eax), %edx
	movl	8(%ebp), %ecx
	movl	%edx, %eax
	addl	%eax, %eax
	addl	%edx, %eax
	sall	$4, %eax
	leal	(%ecx,%eax), %eax
	leal	344(%eax), %edx
	movl	$0x41200000, %eax
	movl	%eax, (%edx)
	.loc 1 470 0
	movl	12(%ebp), %eax
	movl	(%eax), %eax
	leal	1(%eax), %edx
	movl	12(%ebp), %eax
	movl	%edx, (%eax)
.LBE28:
	.loc 1 448 0
	addl	$1, -28(%ebp)
.L104:
	movl	36(%ebp), %eax
	addl	$1, %eax
	cmpl	-28(%ebp), %eax
	setg	%al
	testb	%al, %al
	jne	.L109
	jmp	.L110
.L111:
.LBB29:
	.loc 1 452 0
	nop
.L110:
.LBE29:
.LBE27:
	.loc 1 472 0
	addl	$204, %esp
	popl	%ebx
	popl	%esi
	popl	%edi
	popl	%ebp
	ret
	.cfi_endproc
.LFE25:
	.size	blendcubic, .-blendcubic
.globl blendcubicmaxvel
	.type	blendcubicmaxvel, @function
blendcubicmaxvel:
.LFB26:
	.loc 1 476 0
	.cfi_startproc
	.cfi_personality 0x0,__gxx_personality_v0
	pushl	%ebp
.LCFI34:
	.cfi_def_cfa_offset 8
	movl	%esp, %ebp
	.cfi_offset 5, -8
.LCFI35:
	.cfi_def_cfa_register 5
	pushl	%ebx
	subl	$228, %esp
	call	mcount
	.loc 1 476 0
.LBB30:
	.loc 1 480 0
	leal	-72(%ebp), %edx
	movl	$0, %ecx
	movl	$24, %eax
	movl	%eax, %ebx
	.cfi_offset 3, -12
	andl	$-4, %ebx
	movl	$0, %eax
.L113:
	movl	%ecx, (%edx,%eax)
	addl	$4, %eax
	cmpl	%ebx, %eax
	jb	.L113
	addl	%eax, %edx
	.loc 1 481 0
	movl	$0, -12(%ebp)
	jmp	.L115
.L116:
	.loc 1 483 0
	movl	-12(%ebp), %ecx
	movl	-12(%ebp), %edx
	movl	12(%ebp), %eax
	movl	(%eax,%edx,4), %eax
	leal	6(%ecx), %edx
	movl	%eax, -168(%ebp,%edx,4)
	.loc 1 484 0
	movl	-12(%ebp), %ecx
	movl	-12(%ebp), %edx
	movl	8(%ebp), %eax
	flds	(%eax,%edx,4)
	flds	.LC15
	fmulp	%st, %st(1)
	movl	-12(%ebp), %edx
	movl	16(%ebp), %eax
	flds	(%eax,%edx,4)
	flds	.LC9
	fmulp	%st, %st(1)
	faddp	%st, %st(1)
	movl	-12(%ebp), %edx
	movl	12(%ebp), %eax
	flds	(%eax,%edx,4)
	fadd	%st(0), %st
	fmuls	24(%ebp)
	faddp	%st, %st(1)
	movl	-12(%ebp), %edx
	movl	20(%ebp), %eax
	flds	(%eax,%edx,4)
	fmuls	24(%ebp)
	faddp	%st, %st(1)
	fchs
	flds	24(%ebp)
	fmuls	24(%ebp)
	fdivrp	%st, %st(1)
	fstps	-172(%ebp)
	flds	-172(%ebp)
	leal	12(%ecx), %eax
	fstps	-168(%ebp,%eax,4)
	.loc 1 485 0
	movl	-12(%ebp), %ecx
	movl	-12(%ebp), %edx
	movl	12(%ebp), %eax
	flds	(%eax,%edx,4)
	fchs
	fmuls	24(%ebp)
	movl	-12(%ebp), %edx
	movl	20(%ebp), %eax
	flds	(%eax,%edx,4)
	fmuls	24(%ebp)
	fsubrp	%st, %st(1)
	movl	-12(%ebp), %edx
	movl	8(%ebp), %eax
	flds	(%eax,%edx,4)
	flds	.LC16
	fmulp	%st, %st(1)
	faddp	%st, %st(1)
	movl	-12(%ebp), %edx
	movl	16(%ebp), %eax
	flds	(%eax,%edx,4)
	fadd	%st(0), %st
	faddp	%st, %st(1)
	fchs
	flds	24(%ebp)
	fmuls	24(%ebp)
	fmuls	24(%ebp)
	fdivrp	%st, %st(1)
	fstps	-172(%ebp)
	flds	-172(%ebp)
	leal	18(%ecx), %eax
	fstps	-168(%ebp,%eax,4)
	.loc 1 481 0
	addl	$1, -12(%ebp)
.L115:
	cmpl	$4, -12(%ebp)
	setle	%al
	testb	%al, %al
	jne	.L116
	.loc 1 488 0
	movl	$0x00000000, %eax
	movl	%eax, -16(%ebp)
	.loc 1 489 0
	movl	$0, -12(%ebp)
	jmp	.L117
.L119:
	.loc 1 490 0
	movl	-12(%ebp), %ebx
	movl	-12(%ebp), %eax
	addl	$18, %eax
	flds	-168(%ebp,%eax,4)
	flds	.LC15
	fmulp	%st, %st(1)
	fstpl	-200(%ebp)
	flds	-16(%ebp)
	fldl	.LC32
	fstpl	8(%esp)
	fstpl	(%esp)
	call	pow
	fldl	-200(%ebp)
	fmulp	%st, %st(1)
	movl	-12(%ebp), %eax
	addl	$12, %eax
	flds	-168(%ebp,%eax,4)
	fadd	%st(0), %st
	fmuls	-16(%ebp)
	faddp	%st, %st(1)
	movl	-12(%ebp), %eax
	addl	$6, %eax
	flds	-168(%ebp,%eax,4)
	faddp	%st, %st(1)
	fabs
	fstps	-172(%ebp)
	flds	-172(%ebp)
	fstps	-48(%ebp,%ebx,4)
	.loc 1 491 0
	movl	-12(%ebp), %eax
	flds	-48(%ebp,%eax,4)
	movl	-12(%ebp), %eax
	flds	-72(%ebp,%eax,4)
	fxch	%st(1)
	fucompp
	fnstsw	%ax
	sahf
	seta	%al
	testb	%al, %al
	je	.L118
	movl	-12(%ebp), %eax
	movl	-12(%ebp), %edx
	movl	-48(%ebp,%edx,4), %edx
	movl	%edx, -72(%ebp,%eax,4)
.L118:
	.loc 1 489 0
	addl	$1, -12(%ebp)
.L117:
	cmpl	$4, -12(%ebp)
	setle	%al
	testb	%al, %al
	jne	.L119
	.loc 1 493 0
	movl	24(%ebp), %eax
	movl	%eax, -16(%ebp)
	.loc 1 494 0
	movl	$0, -12(%ebp)
	jmp	.L120
.L122:
	.loc 1 495 0
	movl	-12(%ebp), %ebx
	movl	-12(%ebp), %eax
	addl	$18, %eax
	flds	-168(%ebp,%eax,4)
	flds	.LC15
	fmulp	%st, %st(1)
	fstpl	-192(%ebp)
	flds	-16(%ebp)
	fldl	.LC32
	fstpl	8(%esp)
	fstpl	(%esp)
	call	pow
	fldl	-192(%ebp)
	fmulp	%st, %st(1)
	movl	-12(%ebp), %eax
	addl	$12, %eax
	flds	-168(%ebp,%eax,4)
	fadd	%st(0), %st
	fmuls	-16(%ebp)
	faddp	%st, %st(1)
	movl	-12(%ebp), %eax
	addl	$6, %eax
	flds	-168(%ebp,%eax,4)
	faddp	%st, %st(1)
	fabs
	fstps	-172(%ebp)
	flds	-172(%ebp)
	fstps	-48(%ebp,%ebx,4)
	.loc 1 496 0
	movl	-12(%ebp), %eax
	flds	-48(%ebp,%eax,4)
	movl	-12(%ebp), %eax
	flds	-72(%ebp,%eax,4)
	fxch	%st(1)
	fucompp
	fnstsw	%ax
	sahf
	seta	%al
	testb	%al, %al
	je	.L121
	movl	-12(%ebp), %eax
	movl	-12(%ebp), %edx
	movl	-48(%ebp,%edx,4), %edx
	movl	%edx, -72(%ebp,%eax,4)
.L121:
	.loc 1 494 0
	addl	$1, -12(%ebp)
.L120:
	cmpl	$4, -12(%ebp)
	setle	%al
	testb	%al, %al
	jne	.L122
	.loc 1 498 0
	movl	$0, -12(%ebp)
	jmp	.L123
.L125:
.LBB31:
	.loc 1 500 0
	movl	-12(%ebp), %edx
	movl	8(%ebp), %eax
	flds	(%eax,%edx,4)
	flds	.LC15
	fmulp	%st, %st(1)
	movl	-12(%ebp), %edx
	movl	16(%ebp), %eax
	flds	(%eax,%edx,4)
	flds	.LC9
	fmulp	%st, %st(1)
	faddp	%st, %st(1)
	movl	-12(%ebp), %edx
	movl	12(%ebp), %eax
	flds	(%eax,%edx,4)
	fadd	%st(0), %st
	fmuls	24(%ebp)
	faddp	%st, %st(1)
	movl	-12(%ebp), %edx
	movl	20(%ebp), %eax
	flds	(%eax,%edx,4)
	fmuls	24(%ebp)
	faddp	%st, %st(1)
	fmuls	24(%ebp)
	movl	-12(%ebp), %edx
	movl	8(%ebp), %eax
	flds	(%eax,%edx,4)
	fld	%st(0)
	faddp	%st, %st(1)
	movl	-12(%ebp), %edx
	movl	16(%ebp), %eax
	flds	(%eax,%edx,4)
	flds	.LC16
	fmulp	%st, %st(1)
	faddp	%st, %st(1)
	movl	-12(%ebp), %edx
	movl	12(%ebp), %eax
	flds	(%eax,%edx,4)
	fmuls	24(%ebp)
	faddp	%st, %st(1)
	movl	-12(%ebp), %edx
	movl	20(%ebp), %eax
	flds	(%eax,%edx,4)
	fmuls	24(%ebp)
	faddp	%st, %st(1)
	flds	.LC15
	fmulp	%st, %st(1)
	fdivrp	%st, %st(1)
	fstps	-20(%ebp)
	.loc 1 501 0
	flds	-20(%ebp)
	fldz
	fxch	%st(1)
	fucompp
	fnstsw	%ax
	sahf
	setae	%al
	testb	%al, %al
	je	.L124
	flds	-20(%ebp)
	flds	24(%ebp)
	fucompp
	fnstsw	%ax
	testb	$5, %ah
	sete	%al
	testb	%al, %al
	je	.L124
	.loc 1 502 0
	movl	-12(%ebp), %ebx
	movl	-12(%ebp), %eax
	addl	$18, %eax
	flds	-168(%ebp,%eax,4)
	flds	.LC15
	fmulp	%st, %st(1)
	fstpl	-184(%ebp)
	flds	-20(%ebp)
	fldl	.LC32
	fstpl	8(%esp)
	fstpl	(%esp)
	call	pow
	fldl	-184(%ebp)
	fmulp	%st, %st(1)
	movl	-12(%ebp), %eax
	addl	$12, %eax
	flds	-168(%ebp,%eax,4)
	fadd	%st(0), %st
	fmuls	-20(%ebp)
	faddp	%st, %st(1)
	movl	-12(%ebp), %eax
	addl	$6, %eax
	flds	-168(%ebp,%eax,4)
	faddp	%st, %st(1)
	fabs
	fstps	-172(%ebp)
	flds	-172(%ebp)
	fstps	-48(%ebp,%ebx,4)
	.loc 1 503 0
	movl	-12(%ebp), %eax
	flds	-48(%ebp,%eax,4)
	movl	-12(%ebp), %eax
	flds	-72(%ebp,%eax,4)
	fxch	%st(1)
	fucompp
	fnstsw	%ax
	sahf
	seta	%al
	testb	%al, %al
	je	.L124
	movl	-12(%ebp), %eax
	movl	-12(%ebp), %edx
	movl	-48(%ebp,%edx,4), %edx
	movl	%edx, -72(%ebp,%eax,4)
.L124:
.LBE31:
	.loc 1 498 0
	addl	$1, -12(%ebp)
.L123:
	cmpl	$4, -12(%ebp)
	setle	%al
	testb	%al, %al
	jne	.L125
	.loc 1 507 0
	movl	$0x00000000, %eax
	movl	%eax, -24(%ebp)
	.loc 1 508 0
	movl	$0, -12(%ebp)
	jmp	.L126
.L128:
	.loc 1 509 0
	movl	-12(%ebp), %eax
	movl	-12(%ebp), %edx
	flds	-72(%ebp,%edx,4)
	movl	-12(%ebp), %ecx
	movl	28(%ebp), %edx
	flds	(%edx,%ecx,4)
	fdivrp	%st, %st(1)
	fstps	-48(%ebp,%eax,4)
	.loc 1 510 0
	movl	-12(%ebp), %eax
	flds	-48(%ebp,%eax,4)
	flds	-24(%ebp)
	fxch	%st(1)
	fucompp
	fnstsw	%ax
	sahf
	seta	%al
	testb	%al, %al
	je	.L127
	movl	-12(%ebp), %eax
	movl	-48(%ebp,%eax,4), %eax
	movl	%eax, -24(%ebp)
.L127:
	.loc 1 508 0
	addl	$1, -12(%ebp)
.L126:
	cmpl	$4, -12(%ebp)
	setle	%al
	testb	%al, %al
	jne	.L128
	.loc 1 513 0
	movl	-24(%ebp), %eax
	movl	%eax, -204(%ebp)
	flds	-204(%ebp)
.LBE30:
	.loc 1 514 0
	addl	$228, %esp
	popl	%ebx
	popl	%ebp
	ret
	.cfi_endproc
.LFE26:
	.size	blendcubicmaxvel, .-blendcubicmaxvel
.globl blendcubicmaxacc
	.type	blendcubicmaxacc, @function
blendcubicmaxacc:
.LFB27:
	.loc 1 517 0
	.cfi_startproc
	.cfi_personality 0x0,__gxx_personality_v0
	pushl	%ebp
.LCFI36:
	.cfi_def_cfa_offset 8
	movl	%esp, %ebp
	.cfi_offset 5, -8
.LCFI37:
	.cfi_def_cfa_register 5
	pushl	%ebx
	subl	$168, %esp
	call	mcount
	.loc 1 517 0
.LBB32:
	.loc 1 521 0
	leal	-64(%ebp), %edx
	movl	$0, %ecx
	movl	$24, %eax
	movl	%eax, %ebx
	.cfi_offset 3, -12
	andl	$-4, %ebx
	movl	$0, %eax
.L131:
	movl	%ecx, (%edx,%eax)
	addl	$4, %eax
	cmpl	%ebx, %eax
	jb	.L131
	addl	%eax, %edx
	.loc 1 522 0
	movl	$0, -8(%ebp)
	jmp	.L133
.L134:
	.loc 1 525 0
	movl	-8(%ebp), %ecx
	movl	-8(%ebp), %edx
	movl	8(%ebp), %eax
	flds	(%eax,%edx,4)
	flds	.LC15
	fmulp	%st, %st(1)
	movl	-8(%ebp), %edx
	movl	16(%ebp), %eax
	flds	(%eax,%edx,4)
	flds	.LC9
	fmulp	%st, %st(1)
	faddp	%st, %st(1)
	movl	-8(%ebp), %edx
	movl	12(%ebp), %eax
	flds	(%eax,%edx,4)
	fadd	%st(0), %st
	fmuls	24(%ebp)
	faddp	%st, %st(1)
	movl	-8(%ebp), %edx
	movl	20(%ebp), %eax
	flds	(%eax,%edx,4)
	fmuls	24(%ebp)
	faddp	%st, %st(1)
	fchs
	flds	24(%ebp)
	fmuls	24(%ebp)
	fdivrp	%st, %st(1)
	fstps	-168(%ebp)
	flds	-168(%ebp)
	leal	12(%ecx), %eax
	fstps	-160(%ebp,%eax,4)
	.loc 1 526 0
	movl	-8(%ebp), %ecx
	movl	-8(%ebp), %edx
	movl	12(%ebp), %eax
	flds	(%eax,%edx,4)
	fchs
	fmuls	24(%ebp)
	movl	-8(%ebp), %edx
	movl	20(%ebp), %eax
	flds	(%eax,%edx,4)
	fmuls	24(%ebp)
	fsubrp	%st, %st(1)
	movl	-8(%ebp), %edx
	movl	8(%ebp), %eax
	flds	(%eax,%edx,4)
	flds	.LC16
	fmulp	%st, %st(1)
	faddp	%st, %st(1)
	movl	-8(%ebp), %edx
	movl	16(%ebp), %eax
	flds	(%eax,%edx,4)
	fadd	%st(0), %st
	faddp	%st, %st(1)
	fchs
	flds	24(%ebp)
	fmuls	24(%ebp)
	fmuls	24(%ebp)
	fdivrp	%st, %st(1)
	fstps	-168(%ebp)
	flds	-168(%ebp)
	leal	18(%ecx), %eax
	fstps	-160(%ebp,%eax,4)
	.loc 1 522 0
	addl	$1, -8(%ebp)
.L133:
	cmpl	$4, -8(%ebp)
	setle	%al
	testb	%al, %al
	jne	.L134
	.loc 1 530 0
	movl	$0x00000000, %eax
	movl	%eax, -12(%ebp)
	.loc 1 531 0
	movl	$0, -8(%ebp)
	jmp	.L135
.L137:
	.loc 1 532 0
	movl	-8(%ebp), %eax
	movl	-8(%ebp), %edx
	addl	$18, %edx
	flds	-160(%ebp,%edx,4)
	flds	.LC30
	fmulp	%st, %st(1)
	fmuls	-12(%ebp)
	movl	-8(%ebp), %edx
	addl	$12, %edx
	flds	-160(%ebp,%edx,4)
	fadd	%st(0), %st
	faddp	%st, %st(1)
	fabs
	fstps	-40(%ebp,%eax,4)
	.loc 1 533 0
	movl	-8(%ebp), %eax
	flds	-40(%ebp,%eax,4)
	movl	-8(%ebp), %eax
	flds	-64(%ebp,%eax,4)
	fxch	%st(1)
	fucompp
	fnstsw	%ax
	sahf
	seta	%al
	testb	%al, %al
	je	.L136
	movl	-8(%ebp), %eax
	movl	-8(%ebp), %edx
	movl	-40(%ebp,%edx,4), %edx
	movl	%edx, -64(%ebp,%eax,4)
.L136:
	.loc 1 531 0
	addl	$1, -8(%ebp)
.L135:
	cmpl	$4, -8(%ebp)
	setle	%al
	testb	%al, %al
	jne	.L137
	.loc 1 535 0
	movl	24(%ebp), %eax
	movl	%eax, -12(%ebp)
	.loc 1 536 0
	movl	$0, -8(%ebp)
	jmp	.L138
.L140:
	.loc 1 537 0
	movl	-8(%ebp), %eax
	movl	-8(%ebp), %edx
	addl	$18, %edx
	flds	-160(%ebp,%edx,4)
	flds	.LC30
	fmulp	%st, %st(1)
	fmuls	-12(%ebp)
	movl	-8(%ebp), %edx
	addl	$12, %edx
	flds	-160(%ebp,%edx,4)
	fadd	%st(0), %st
	faddp	%st, %st(1)
	fabs
	fstps	-40(%ebp,%eax,4)
	.loc 1 538 0
	movl	-8(%ebp), %eax
	flds	-40(%ebp,%eax,4)
	movl	-8(%ebp), %eax
	flds	-64(%ebp,%eax,4)
	fxch	%st(1)
	fucompp
	fnstsw	%ax
	sahf
	seta	%al
	testb	%al, %al
	je	.L139
	movl	-8(%ebp), %eax
	movl	-8(%ebp), %edx
	movl	-40(%ebp,%edx,4), %edx
	movl	%edx, -64(%ebp,%eax,4)
.L139:
	.loc 1 536 0
	addl	$1, -8(%ebp)
.L138:
	cmpl	$4, -8(%ebp)
	setle	%al
	testb	%al, %al
	jne	.L140
	.loc 1 541 0
	movl	$0x00000000, %eax
	movl	%eax, -16(%ebp)
	.loc 1 542 0
	movl	$0, -8(%ebp)
	jmp	.L141
.L143:
	.loc 1 543 0
	movl	-8(%ebp), %eax
	movl	-8(%ebp), %edx
	flds	-64(%ebp,%edx,4)
	movl	-8(%ebp), %ecx
	movl	28(%ebp), %edx
	flds	(%edx,%ecx,4)
	fdivrp	%st, %st(1)
	fstps	-40(%ebp,%eax,4)
	.loc 1 544 0
	movl	-8(%ebp), %eax
	flds	-40(%ebp,%eax,4)
	flds	-16(%ebp)
	fxch	%st(1)
	fucompp
	fnstsw	%ax
	sahf
	seta	%al
	testb	%al, %al
	je	.L142
	movl	-8(%ebp), %eax
	movl	-40(%ebp,%eax,4), %eax
	movl	%eax, -16(%ebp)
.L142:
	.loc 1 542 0
	addl	$1, -8(%ebp)
.L141:
	cmpl	$4, -8(%ebp)
	setle	%al
	testb	%al, %al
	jne	.L143
	.loc 1 547 0
	movl	-16(%ebp), %eax
	movl	%eax, -172(%ebp)
	flds	-172(%ebp)
.LBE32:
	.loc 1 548 0
	addl	$168, %esp
	popl	%ebx
	popl	%ebp
	ret
	.cfi_endproc
.LFE27:
	.size	blendcubicmaxacc, .-blendcubicmaxacc
.globl trajopt
	.type	trajopt, @function
trajopt:
.LFB28:
	.loc 1 581 0
	.cfi_startproc
	.cfi_personality 0x0,__gxx_personality_v0
	pushl	%ebp
.LCFI38:
	.cfi_def_cfa_offset 8
	movl	%esp, %ebp
	.cfi_offset 5, -8
.LCFI39:
	.cfi_def_cfa_register 5
	pushl	%edi
	pushl	%esi
	pushl	%ebx
	subl	$27212, %esp
	call	mcount
	movl	8(%ebp), %eax
	movl	%eax, -26764(%ebp)
	movl	12(%ebp), %eax
	movl	%eax, -26768(%ebp)
	movl	44(%ebp), %eax
	movl	%eax, -26772(%ebp)
	movl	48(%ebp), %eax
	movl	%eax, -26776(%ebp)
	movl	52(%ebp), %eax
	movl	%eax, -26780(%ebp)
	movl	56(%ebp), %eax
	movl	%eax, -26784(%ebp)
	movl	60(%ebp), %eax
	movl	%eax, -26788(%ebp)
	movl	64(%ebp), %eax
	movl	%eax, -26792(%ebp)
	movl	68(%ebp), %eax
	movl	%eax, -26796(%ebp)
	movl	72(%ebp), %eax
	movl	%eax, -26800(%ebp)
	movl	76(%ebp), %eax
	movl	%eax, -26804(%ebp)
	movl	80(%ebp), %eax
	movl	%eax, -26808(%ebp)
	movl	84(%ebp), %eax
	movl	%eax, -26812(%ebp)
	movl	88(%ebp), %eax
	movl	%eax, -26816(%ebp)
	.loc 1 581 0
	movl	%gs:20, %eax
	movl	%eax, -28(%ebp)
	xorl	%eax, %eax
.LBB33:
	.loc 1 583 0
	movl	$23760, 8(%esp)
	movl	-26764(%ebp), %eax
	movl	%eax, 4(%esp)
	leal	-23788(%ebp), %eax
	movl	%eax, (%esp)
	.cfi_offset 3, -20
	.cfi_offset 6, -16
	.cfi_offset 7, -12
	call	memcpy
	.loc 1 584 0
	movl	$0, -13048(%ebp)
	.loc 1 585 0
	movl	$1, -23792(%ebp)
	.loc 1 586 0
	leal	-23792(%ebp), %eax
	movl	%eax, -23796(%ebp)
	.loc 1 587 0
	movl	$0, -23800(%ebp)
	.loc 1 588 0
	movl	$0, -23804(%ebp)
	movl	$0, -23808(%ebp)
	movl	$0, -23812(%ebp)
	.loc 1 589 0
	movl	$0x00000000, %eax
	movl	%eax, -23816(%ebp)
	.loc 1 594 0
	movl	$24, 8(%esp)
	movl	-26788(%ebp), %eax
	movl	%eax, 4(%esp)
	leal	-23968(%ebp), %eax
	movl	%eax, (%esp)
	call	memcpy
	.loc 1 595 0
	movl	$24, 8(%esp)
	movl	-26780(%ebp), %eax
	movl	%eax, 4(%esp)
	leal	-23992(%ebp), %eax
	movl	%eax, (%esp)
	call	memcpy
	.loc 1 598 0
	movl	$24, 8(%esp)
	movl	-26792(%ebp), %eax
	movl	%eax, 4(%esp)
	leal	-24016(%ebp), %eax
	movl	%eax, (%esp)
	call	memcpy
	.loc 1 599 0
	movl	$24, 8(%esp)
	movl	-26784(%ebp), %eax
	movl	%eax, 4(%esp)
	leal	-24040(%ebp), %eax
	movl	%eax, (%esp)
	call	memcpy
	.loc 1 601 0
	movl	$0, -23820(%ebp)
	.loc 1 602 0
	movl	-26812(%ebp), %eax
	movl	(%eax), %eax
	cmpl	$2, %eax
	jne	.L146
	.loc 1 603 0
	movl	-26812(%ebp), %eax
	flds	24(%eax)
	flds	.LC35
	fmulp	%st, %st(1)
	fnstcw	-26822(%ebp)
	movzwl	-26822(%ebp), %eax
	movb	$12, %ah
	movw	%ax, -26824(%ebp)
	fldcw	-26824(%ebp)
	fistpl	-23820(%ebp)
	fldcw	-26822(%ebp)
	.loc 1 604 0
	flds	-23988(%ebp)
	movl	-26812(%ebp), %eax
	flds	16(%eax)
	faddp	%st, %st(1)
	fstps	-23988(%ebp)
	.loc 1 605 0
	movl	$0x00000000, %eax
	movl	%eax, -24040(%ebp)
	.loc 1 606 0
	movl	-26812(%ebp), %eax
	movl	24(%eax), %edx
	movl	-26812(%ebp), %eax
	movl	16(%eax), %eax
	movl	%edx, 4(%esp)
	movl	%eax, (%esp)
	call	uplinespeed
	fstps	-24036(%ebp)
	.loc 1 607 0
	movl	$0x00000000, %eax
	movl	%eax, -24032(%ebp)
	.loc 1 608 0
	movl	$0x00000000, %eax
	movl	%eax, -24028(%ebp)
	.loc 1 609 0
	movl	$0x00000000, %eax
	movl	%eax, -24024(%ebp)
	.loc 1 610 0
	movl	$0x00000000, %eax
	movl	%eax, -24020(%ebp)
	jmp	.L147
.L146:
	.loc 1 612 0
	movl	-26812(%ebp), %eax
	movl	(%eax), %eax
	cmpl	$4, %eax
	jne	.L147
	.loc 1 613 0
	movl	-26812(%ebp), %eax
	flds	24(%eax)
	flds	.LC35
	fmulp	%st, %st(1)
	fnstcw	-26822(%ebp)
	movzwl	-26822(%ebp), %eax
	movb	$12, %ah
	movw	%ax, -26824(%ebp)
	fldcw	-26824(%ebp)
	fistpl	-23820(%ebp)
	fldcw	-26822(%ebp)
	.loc 1 614 0
	flds	-23988(%ebp)
	movl	-26812(%ebp), %eax
	flds	16(%eax)
	faddp	%st, %st(1)
	fstps	-23988(%ebp)
	.loc 1 615 0
	movl	$0x00000000, %eax
	movl	%eax, -24040(%ebp)
	.loc 1 616 0
	movl	-26812(%ebp), %eax
	movl	24(%eax), %edx
	movl	-26812(%ebp), %eax
	movl	16(%eax), %eax
	movl	%edx, 4(%esp)
	movl	%eax, (%esp)
	call	_Z15fastuplinespeedff
	fstps	-24036(%ebp)
	.loc 1 617 0
	movl	$0x00000000, %eax
	movl	%eax, -24032(%ebp)
	.loc 1 618 0
	movl	$0x00000000, %eax
	movl	%eax, -24028(%ebp)
	.loc 1 619 0
	movl	$0x00000000, %eax
	movl	%eax, -24024(%ebp)
	.loc 1 620 0
	movl	$0x00000000, %eax
	movl	%eax, -24020(%ebp)
.L147:
	.loc 1 622 0
	movl	$0, -23824(%ebp)
	.loc 1 623 0
	movl	-26816(%ebp), %eax
	movl	(%eax), %eax
	cmpl	$1, %eax
	jne	.L148
	.loc 1 624 0
	movl	-26816(%ebp), %eax
	flds	24(%eax)
	flds	.LC35
	fmulp	%st, %st(1)
	fnstcw	-26822(%ebp)
	movzwl	-26822(%ebp), %eax
	movb	$12, %ah
	movw	%ax, -26824(%ebp)
	fldcw	-26824(%ebp)
	fistpl	-23824(%ebp)
	fldcw	-26822(%ebp)
	.loc 1 625 0
	flds	-23964(%ebp)
	movl	-26816(%ebp), %eax
	flds	16(%eax)
	faddp	%st, %st(1)
	fstps	-23964(%ebp)
	.loc 1 626 0
	movl	$0x00000000, %eax
	movl	%eax, -24016(%ebp)
	.loc 1 627 0
	movl	-26816(%ebp), %eax
	movl	24(%eax), %edx
	movl	-26816(%ebp), %eax
	movl	16(%eax), %eax
	movl	%edx, 4(%esp)
	movl	%eax, (%esp)
	call	spiralspeed
	fstps	-24012(%ebp)
	.loc 1 628 0
	movl	$0x00000000, %eax
	movl	%eax, -24008(%ebp)
	.loc 1 629 0
	movl	$0x00000000, %eax
	movl	%eax, -24004(%ebp)
	.loc 1 630 0
	movl	$0x00000000, %eax
	movl	%eax, -24000(%ebp)
	.loc 1 631 0
	movl	$0x00000000, %eax
	movl	%eax, -23996(%ebp)
	jmp	.L149
.L148:
	.loc 1 633 0
	movl	-26816(%ebp), %eax
	movl	(%eax), %eax
	cmpl	$3, %eax
	jne	.L150
	.loc 1 634 0
	movl	-26816(%ebp), %eax
	flds	24(%eax)
	flds	.LC35
	fmulp	%st, %st(1)
	fnstcw	-26822(%ebp)
	movzwl	-26822(%ebp), %eax
	movb	$12, %ah
	movw	%ax, -26824(%ebp)
	fldcw	-26824(%ebp)
	fistpl	-23824(%ebp)
	fldcw	-26822(%ebp)
	.loc 1 635 0
	flds	-23964(%ebp)
	movl	-26816(%ebp), %eax
	flds	16(%eax)
	faddp	%st, %st(1)
	fstps	-23964(%ebp)
	.loc 1 636 0
	movl	$0x00000000, %eax
	movl	%eax, -24016(%ebp)
	.loc 1 637 0
	movl	-26816(%ebp), %eax
	movl	24(%eax), %edx
	movl	-26816(%ebp), %eax
	movl	16(%eax), %eax
	movl	%edx, 4(%esp)
	movl	%eax, (%esp)
	call	downlinespeed
	fstps	-24012(%ebp)
	.loc 1 638 0
	movl	$0x00000000, %eax
	movl	%eax, -24008(%ebp)
	.loc 1 639 0
	movl	$0x00000000, %eax
	movl	%eax, -24004(%ebp)
	.loc 1 640 0
	movl	$0x00000000, %eax
	movl	%eax, -24000(%ebp)
	.loc 1 641 0
	movl	$0x00000000, %eax
	movl	%eax, -23996(%ebp)
	jmp	.L149
.L150:
	.loc 1 643 0
	movl	-26816(%ebp), %eax
	movl	(%eax), %eax
	cmpl	$5, %eax
	jne	.L149
	.loc 1 644 0
	movl	-26816(%ebp), %eax
	flds	24(%eax)
	flds	.LC35
	fmulp	%st, %st(1)
	fnstcw	-26822(%ebp)
	movzwl	-26822(%ebp), %eax
	movb	$12, %ah
	movw	%ax, -26824(%ebp)
	fldcw	-26824(%ebp)
	fistpl	-23824(%ebp)
	fldcw	-26822(%ebp)
	.loc 1 645 0
	flds	-23964(%ebp)
	movl	-26816(%ebp), %eax
	flds	16(%eax)
	faddp	%st, %st(1)
	fstps	-23964(%ebp)
	.loc 1 646 0
	movl	$0x00000000, %eax
	movl	%eax, -24016(%ebp)
	.loc 1 647 0
	movl	-26816(%ebp), %eax
	movl	24(%eax), %edx
	movl	-26816(%ebp), %eax
	movl	16(%eax), %eax
	movl	%edx, 4(%esp)
	movl	%eax, (%esp)
	call	_Z17fastdownlinespeedff
	fstps	-24012(%ebp)
	.loc 1 648 0
	movl	$0x00000000, %eax
	movl	%eax, -24008(%ebp)
	.loc 1 649 0
	movl	$0x00000000, %eax
	movl	%eax, -24004(%ebp)
	.loc 1 650 0
	movl	$0x00000000, %eax
	movl	%eax, -24000(%ebp)
	.loc 1 651 0
	movl	$0x00000000, %eax
	movl	%eax, -23996(%ebp)
.L149:
	.loc 1 660 0
	flds	-23992(%ebp)
	flds	-24040(%ebp)
	fldl	.LC36
	fmulp	%st, %st(1)
	faddp	%st, %st(1)
	fstps	-26820(%ebp)
	flds	-26820(%ebp)
	fstps	-24160(%ebp)
	.loc 1 661 0
	flds	-23988(%ebp)
	flds	-24036(%ebp)
	fldl	.LC36
	fmulp	%st, %st(1)
	faddp	%st, %st(1)
	fstps	-26820(%ebp)
	flds	-26820(%ebp)
	fstps	-24156(%ebp)
	.loc 1 662 0
	flds	-23984(%ebp)
	flds	-24032(%ebp)
	fldl	.LC36
	fmulp	%st, %st(1)
	faddp	%st, %st(1)
	fstps	-26820(%ebp)
	flds	-26820(%ebp)
	fstps	-24152(%ebp)
	.loc 1 663 0
	flds	-23980(%ebp)
	flds	-24028(%ebp)
	fldl	.LC36
	fmulp	%st, %st(1)
	faddp	%st, %st(1)
	fstps	-26820(%ebp)
	flds	-26820(%ebp)
	fstps	-24148(%ebp)
	.loc 1 664 0
	flds	-23976(%ebp)
	flds	-24024(%ebp)
	fldl	.LC36
	fmulp	%st, %st(1)
	faddp	%st, %st(1)
	fstps	-26820(%ebp)
	flds	-26820(%ebp)
	fstps	-24144(%ebp)
	.loc 1 665 0
	flds	-23972(%ebp)
	flds	-24020(%ebp)
	fldl	.LC36
	fmulp	%st, %st(1)
	faddp	%st, %st(1)
	fstps	-26820(%ebp)
	flds	-26820(%ebp)
	fstps	-24140(%ebp)
	.loc 1 667 0
	flds	-23968(%ebp)
	flds	-24016(%ebp)
	fldl	.LC36
	fmulp	%st, %st(1)
	faddp	%st, %st(1)
	fstps	-26820(%ebp)
	flds	-26820(%ebp)
	fstps	-24184(%ebp)
	.loc 1 668 0
	flds	-23964(%ebp)
	flds	-24012(%ebp)
	fldl	.LC36
	fmulp	%st, %st(1)
	faddp	%st, %st(1)
	fstps	-26820(%ebp)
	flds	-26820(%ebp)
	fstps	-24180(%ebp)
	.loc 1 669 0
	flds	-23960(%ebp)
	flds	-24008(%ebp)
	fldl	.LC36
	fmulp	%st, %st(1)
	faddp	%st, %st(1)
	fstps	-26820(%ebp)
	flds	-26820(%ebp)
	fstps	-24176(%ebp)
	.loc 1 670 0
	flds	-23956(%ebp)
	flds	-24004(%ebp)
	fldl	.LC36
	fmulp	%st, %st(1)
	faddp	%st, %st(1)
	fstps	-26820(%ebp)
	flds	-26820(%ebp)
	fstps	-24172(%ebp)
	.loc 1 671 0
	flds	-23952(%ebp)
	flds	-24000(%ebp)
	fldl	.LC36
	fmulp	%st, %st(1)
	faddp	%st, %st(1)
	fstps	-26820(%ebp)
	flds	-26820(%ebp)
	fstps	-24168(%ebp)
	.loc 1 672 0
	flds	-23948(%ebp)
	flds	-23996(%ebp)
	fldl	.LC36
	fmulp	%st, %st(1)
	faddp	%st, %st(1)
	fstps	-26820(%ebp)
	flds	-26820(%ebp)
	fstps	-24164(%ebp)
	.loc 1 674 0
	movl	-23972(%ebp), %edi
	movl	-23976(%ebp), %esi
	movl	-23980(%ebp), %ebx
	movl	-23984(%ebp), %ecx
	movl	-23988(%ebp), %edx
	movl	-23992(%ebp), %eax
	movl	%eax, -26960(%ebp)
	movl	36(%ebp), %eax
	movl	%eax, -26916(%ebp)
	movl	-26916(%ebp), %eax
	movl	%eax, 28(%esp)
	movl	%edi, 24(%esp)
	movl	%esi, 20(%esp)
	movl	%ebx, 16(%esp)
	movl	%ecx, 12(%esp)
	movl	%edx, 8(%esp)
	movl	-26960(%ebp), %edx
	movl	%edx, 4(%esp)
	leal	-23788(%ebp), %eax
	movl	%eax, (%esp)
	call	tmpnComputeIK
	.loc 1 675 0
	movl	-21504(%ebp), %eax
	movl	%eax, -24064(%ebp)
	movl	-21500(%ebp), %eax
	movl	%eax, -24060(%ebp)
	movl	-21496(%ebp), %eax
	movl	%eax, -24056(%ebp)
	movl	-21492(%ebp), %eax
	movl	%eax, -24052(%ebp)
	movl	-21488(%ebp), %eax
	movl	%eax, -24048(%ebp)
	movl	-21484(%ebp), %eax
	movl	%eax, -24044(%ebp)
	.loc 1 676 0
	movl	-23948(%ebp), %edi
	movl	-23952(%ebp), %esi
	movl	-23956(%ebp), %ebx
	movl	-23960(%ebp), %ecx
	movl	-23964(%ebp), %edx
	movl	-23968(%ebp), %eax
	movl	%eax, -26960(%ebp)
	movl	40(%ebp), %eax
	movl	%eax, -26920(%ebp)
	movl	-26920(%ebp), %eax
	movl	%eax, 28(%esp)
	movl	%edi, 24(%esp)
	movl	%esi, 20(%esp)
	movl	%ebx, 16(%esp)
	movl	%ecx, 12(%esp)
	movl	%edx, 8(%esp)
	movl	-26960(%ebp), %edx
	movl	%edx, 4(%esp)
	leal	-23788(%ebp), %eax
	movl	%eax, (%esp)
	call	tmpnComputeIK
	.loc 1 677 0
	movl	-21504(%ebp), %eax
	movl	%eax, -24088(%ebp)
	movl	-21500(%ebp), %eax
	movl	%eax, -24084(%ebp)
	movl	-21496(%ebp), %eax
	movl	%eax, -24080(%ebp)
	movl	-21492(%ebp), %eax
	movl	%eax, -24076(%ebp)
	movl	-21488(%ebp), %eax
	movl	%eax, -24072(%ebp)
	movl	-21484(%ebp), %eax
	movl	%eax, -24068(%ebp)
	.loc 1 679 0
	movl	-24140(%ebp), %edi
	movl	-24144(%ebp), %esi
	movl	-24148(%ebp), %ebx
	movl	-24152(%ebp), %ecx
	movl	-24156(%ebp), %edx
	movl	-24160(%ebp), %eax
	movl	%eax, -26960(%ebp)
	movl	36(%ebp), %eax
	movl	%eax, -26924(%ebp)
	movl	-26924(%ebp), %eax
	movl	%eax, 28(%esp)
	movl	%edi, 24(%esp)
	movl	%esi, 20(%esp)
	movl	%ebx, 16(%esp)
	movl	%ecx, 12(%esp)
	movl	%edx, 8(%esp)
	movl	-26960(%ebp), %edx
	movl	%edx, 4(%esp)
	leal	-23788(%ebp), %eax
	movl	%eax, (%esp)
	call	tmpnComputeIK
	.loc 1 680 0
	movl	-21504(%ebp), %eax
	movl	%eax, -24112(%ebp)
	movl	-21500(%ebp), %eax
	movl	%eax, -24108(%ebp)
	movl	-21496(%ebp), %eax
	movl	%eax, -24104(%ebp)
	movl	-21492(%ebp), %eax
	movl	%eax, -24100(%ebp)
	movl	-21488(%ebp), %eax
	movl	%eax, -24096(%ebp)
	movl	-21484(%ebp), %eax
	movl	%eax, -24092(%ebp)
	.loc 1 681 0
	movl	-24164(%ebp), %edi
	movl	-24168(%ebp), %esi
	movl	-24172(%ebp), %ebx
	movl	-24176(%ebp), %ecx
	movl	-24180(%ebp), %edx
	movl	-24184(%ebp), %eax
	movl	%eax, -26960(%ebp)
	movl	40(%ebp), %eax
	movl	%eax, -26928(%ebp)
	movl	-26928(%ebp), %eax
	movl	%eax, 28(%esp)
	movl	%edi, 24(%esp)
	movl	%esi, 20(%esp)
	movl	%ebx, 16(%esp)
	movl	%ecx, 12(%esp)
	movl	%edx, 8(%esp)
	movl	-26960(%ebp), %edx
	movl	%edx, 4(%esp)
	leal	-23788(%ebp), %eax
	movl	%eax, (%esp)
	call	tmpnComputeIK
	.loc 1 682 0
	movl	-21504(%ebp), %eax
	movl	%eax, -24136(%ebp)
	movl	-21500(%ebp), %eax
	movl	%eax, -24132(%ebp)
	movl	-21496(%ebp), %eax
	movl	%eax, -24128(%ebp)
	movl	-21492(%ebp), %eax
	movl	%eax, -24124(%ebp)
	movl	-21488(%ebp), %eax
	movl	%eax, -24120(%ebp)
	movl	-21484(%ebp), %eax
	movl	%eax, -24116(%ebp)
	.loc 1 684 0
	flds	-24112(%ebp)
	flds	-24064(%ebp)
	fsubrp	%st, %st(1)
	flds	.LC37
	fmulp	%st, %st(1)
	fstps	-24208(%ebp)
	.loc 1 685 0
	flds	-24108(%ebp)
	flds	-24060(%ebp)
	fsubrp	%st, %st(1)
	flds	.LC37
	fmulp	%st, %st(1)
	fstps	-24204(%ebp)
	.loc 1 686 0
	flds	-24104(%ebp)
	flds	-24056(%ebp)
	fsubrp	%st, %st(1)
	flds	.LC37
	fmulp	%st, %st(1)
	fstps	-24200(%ebp)
	.loc 1 687 0
	flds	-24100(%ebp)
	flds	-24052(%ebp)
	fsubrp	%st, %st(1)
	flds	.LC37
	fmulp	%st, %st(1)
	fstps	-24196(%ebp)
	.loc 1 688 0
	flds	-24096(%ebp)
	flds	-24048(%ebp)
	fsubrp	%st, %st(1)
	flds	.LC37
	fmulp	%st, %st(1)
	fstps	-24192(%ebp)
	.loc 1 689 0
	flds	-24092(%ebp)
	flds	-24044(%ebp)
	fsubrp	%st, %st(1)
	flds	.LC37
	fmulp	%st, %st(1)
	fstps	-24188(%ebp)
	.loc 1 691 0
	flds	-24136(%ebp)
	flds	-24088(%ebp)
	fsubrp	%st, %st(1)
	flds	.LC37
	fmulp	%st, %st(1)
	fstps	-24232(%ebp)
	.loc 1 692 0
	flds	-24132(%ebp)
	flds	-24084(%ebp)
	fsubrp	%st, %st(1)
	flds	.LC37
	fmulp	%st, %st(1)
	fstps	-24228(%ebp)
	.loc 1 693 0
	flds	-24128(%ebp)
	flds	-24080(%ebp)
	fsubrp	%st, %st(1)
	flds	.LC37
	fmulp	%st, %st(1)
	fstps	-24224(%ebp)
	.loc 1 694 0
	flds	-24124(%ebp)
	flds	-24076(%ebp)
	fsubrp	%st, %st(1)
	flds	.LC37
	fmulp	%st, %st(1)
	fstps	-24220(%ebp)
	.loc 1 695 0
	flds	-24120(%ebp)
	flds	-24072(%ebp)
	fsubrp	%st, %st(1)
	flds	.LC37
	fmulp	%st, %st(1)
	fstps	-24216(%ebp)
	.loc 1 696 0
	flds	-24116(%ebp)
	flds	-24068(%ebp)
	fsubrp	%st, %st(1)
	flds	.LC37
	fmulp	%st, %st(1)
	fstps	-24212(%ebp)
	.loc 1 703 0
	movl	-26796(%ebp), %eax
	movl	24(%eax), %eax
	testl	%eax, %eax
	je	.L151
	movl	-26796(%ebp), %eax
	flds	(%eax)
	jmp	.L152
.L151:
	flds	-23992(%ebp)
	movl	-26796(%ebp), %eax
	flds	(%eax)
	faddp	%st, %st(1)
.L152:
	fstps	-24256(%ebp)
	.loc 1 704 0
	movl	-26796(%ebp), %eax
	movl	28(%eax), %eax
	testl	%eax, %eax
	je	.L153
	movl	-26796(%ebp), %eax
	flds	4(%eax)
	jmp	.L154
.L153:
	flds	-23988(%ebp)
	movl	-26796(%ebp), %eax
	flds	4(%eax)
	faddp	%st, %st(1)
.L154:
	fstps	-24252(%ebp)
	.loc 1 705 0
	movl	-26796(%ebp), %eax
	movl	32(%eax), %eax
	testl	%eax, %eax
	je	.L155
	movl	-26796(%ebp), %eax
	flds	8(%eax)
	jmp	.L156
.L155:
	flds	-23984(%ebp)
	movl	-26796(%ebp), %eax
	flds	8(%eax)
	faddp	%st, %st(1)
.L156:
	fstps	-24248(%ebp)
	.loc 1 706 0
	movl	-26796(%ebp), %eax
	movl	36(%eax), %eax
	testl	%eax, %eax
	je	.L157
	movl	-26796(%ebp), %eax
	flds	12(%eax)
	jmp	.L158
.L157:
	flds	-23980(%ebp)
	movl	-26796(%ebp), %eax
	flds	12(%eax)
	faddp	%st, %st(1)
.L158:
	fstps	-24244(%ebp)
	.loc 1 707 0
	movl	-26796(%ebp), %eax
	movl	40(%eax), %eax
	testl	%eax, %eax
	je	.L159
	movl	-26796(%ebp), %eax
	flds	16(%eax)
	jmp	.L160
.L159:
	flds	-23976(%ebp)
	movl	-26796(%ebp), %eax
	flds	16(%eax)
	faddp	%st, %st(1)
.L160:
	fstps	-24240(%ebp)
	.loc 1 708 0
	movl	-26796(%ebp), %eax
	movl	44(%eax), %eax
	testl	%eax, %eax
	je	.L161
	movl	-26796(%ebp), %eax
	flds	20(%eax)
	jmp	.L162
.L161:
	flds	-23972(%ebp)
	movl	-26796(%ebp), %eax
	flds	20(%eax)
	faddp	%st, %st(1)
.L162:
	fstps	-24236(%ebp)
	.loc 1 709 0
	movl	-26804(%ebp), %eax
	movl	24(%eax), %eax
	testl	%eax, %eax
	je	.L163
	movl	-26804(%ebp), %eax
	flds	(%eax)
	jmp	.L164
.L163:
	flds	-23968(%ebp)
	movl	-26804(%ebp), %eax
	flds	(%eax)
	faddp	%st, %st(1)
.L164:
	fstps	-24280(%ebp)
	.loc 1 710 0
	movl	-26804(%ebp), %eax
	movl	28(%eax), %eax
	testl	%eax, %eax
	je	.L165
	movl	-26804(%ebp), %eax
	flds	4(%eax)
	jmp	.L166
.L165:
	flds	-23964(%ebp)
	movl	-26804(%ebp), %eax
	flds	4(%eax)
	faddp	%st, %st(1)
.L166:
	fstps	-24276(%ebp)
	.loc 1 711 0
	movl	-26804(%ebp), %eax
	movl	32(%eax), %eax
	testl	%eax, %eax
	je	.L167
	movl	-26804(%ebp), %eax
	flds	8(%eax)
	jmp	.L168
.L167:
	flds	-23960(%ebp)
	movl	-26804(%ebp), %eax
	flds	8(%eax)
	faddp	%st, %st(1)
.L168:
	fstps	-24272(%ebp)
	.loc 1 712 0
	movl	-26804(%ebp), %eax
	movl	36(%eax), %eax
	testl	%eax, %eax
	je	.L169
	movl	-26804(%ebp), %eax
	flds	12(%eax)
	jmp	.L170
.L169:
	flds	-23956(%ebp)
	movl	-26804(%ebp), %eax
	flds	12(%eax)
	faddp	%st, %st(1)
.L170:
	fstps	-24268(%ebp)
	.loc 1 713 0
	movl	-26804(%ebp), %eax
	movl	40(%eax), %eax
	testl	%eax, %eax
	je	.L171
	movl	-26804(%ebp), %eax
	flds	16(%eax)
	jmp	.L172
.L171:
	flds	-23952(%ebp)
	movl	-26804(%ebp), %eax
	flds	16(%eax)
	faddp	%st, %st(1)
.L172:
	fstps	-24264(%ebp)
	.loc 1 714 0
	movl	-26804(%ebp), %eax
	movl	44(%eax), %eax
	testl	%eax, %eax
	je	.L173
	movl	-26804(%ebp), %eax
	flds	20(%eax)
	jmp	.L174
.L173:
	flds	-23948(%ebp)
	movl	-26804(%ebp), %eax
	flds	20(%eax)
	faddp	%st, %st(1)
.L174:
	fstps	-24260(%ebp)
	.loc 1 720 0
	flds	-24256(%ebp)
	movl	-26800(%ebp), %eax
	flds	(%eax)
	fldl	.LC36
	fmulp	%st, %st(1)
	faddp	%st, %st(1)
	fstps	-26820(%ebp)
	flds	-26820(%ebp)
	fstps	-24304(%ebp)
	.loc 1 721 0
	flds	-24252(%ebp)
	movl	-26800(%ebp), %eax
	flds	4(%eax)
	fldl	.LC36
	fmulp	%st, %st(1)
	faddp	%st, %st(1)
	fstps	-26820(%ebp)
	flds	-26820(%ebp)
	fstps	-24300(%ebp)
	.loc 1 722 0
	flds	-24248(%ebp)
	movl	-26800(%ebp), %eax
	flds	8(%eax)
	fldl	.LC36
	fmulp	%st, %st(1)
	faddp	%st, %st(1)
	fstps	-26820(%ebp)
	flds	-26820(%ebp)
	fstps	-24296(%ebp)
	.loc 1 723 0
	flds	-24244(%ebp)
	movl	-26800(%ebp), %eax
	flds	12(%eax)
	fldl	.LC36
	fmulp	%st, %st(1)
	faddp	%st, %st(1)
	fstps	-26820(%ebp)
	flds	-26820(%ebp)
	fstps	-24292(%ebp)
	.loc 1 724 0
	flds	-24240(%ebp)
	movl	-26800(%ebp), %eax
	flds	16(%eax)
	fldl	.LC36
	fmulp	%st, %st(1)
	faddp	%st, %st(1)
	fstps	-26820(%ebp)
	flds	-26820(%ebp)
	fstps	-24288(%ebp)
	.loc 1 725 0
	flds	-24236(%ebp)
	movl	-26800(%ebp), %eax
	flds	20(%eax)
	fldl	.LC36
	fmulp	%st, %st(1)
	faddp	%st, %st(1)
	fstps	-26820(%ebp)
	flds	-26820(%ebp)
	fstps	-24284(%ebp)
	.loc 1 727 0
	flds	-24280(%ebp)
	movl	-26808(%ebp), %eax
	flds	(%eax)
	fldl	.LC36
	fmulp	%st, %st(1)
	faddp	%st, %st(1)
	fstps	-26820(%ebp)
	flds	-26820(%ebp)
	fstps	-24328(%ebp)
	.loc 1 728 0
	flds	-24276(%ebp)
	movl	-26808(%ebp), %eax
	flds	4(%eax)
	fldl	.LC36
	fmulp	%st, %st(1)
	faddp	%st, %st(1)
	fstps	-26820(%ebp)
	flds	-26820(%ebp)
	fstps	-24324(%ebp)
	.loc 1 729 0
	flds	-24272(%ebp)
	movl	-26808(%ebp), %eax
	flds	8(%eax)
	fldl	.LC36
	fmulp	%st, %st(1)
	faddp	%st, %st(1)
	fstps	-26820(%ebp)
	flds	-26820(%ebp)
	fstps	-24320(%ebp)
	.loc 1 730 0
	flds	-24268(%ebp)
	movl	-26808(%ebp), %eax
	flds	12(%eax)
	fldl	.LC36
	fmulp	%st, %st(1)
	faddp	%st, %st(1)
	fstps	-26820(%ebp)
	flds	-26820(%ebp)
	fstps	-24316(%ebp)
	.loc 1 731 0
	flds	-24264(%ebp)
	movl	-26808(%ebp), %eax
	flds	16(%eax)
	fldl	.LC36
	fmulp	%st, %st(1)
	faddp	%st, %st(1)
	fstps	-26820(%ebp)
	flds	-26820(%ebp)
	fstps	-24312(%ebp)
	.loc 1 732 0
	flds	-24260(%ebp)
	movl	-26808(%ebp), %eax
	flds	20(%eax)
	fldl	.LC36
	fmulp	%st, %st(1)
	faddp	%st, %st(1)
	fstps	-26820(%ebp)
	flds	-26820(%ebp)
	fstps	-24308(%ebp)
	.loc 1 733 0
	movl	-24236(%ebp), %edi
	movl	-24240(%ebp), %esi
	movl	-24244(%ebp), %ebx
	movl	-24248(%ebp), %ecx
	movl	-24252(%ebp), %edx
	movl	-24256(%ebp), %eax
	movl	%eax, -26960(%ebp)
	movl	36(%ebp), %eax
	movl	%eax, -26932(%ebp)
	movl	-26932(%ebp), %eax
	movl	%eax, 28(%esp)
	movl	%edi, 24(%esp)
	movl	%esi, 20(%esp)
	movl	%ebx, 16(%esp)
	movl	%ecx, 12(%esp)
	movl	%edx, 8(%esp)
	movl	-26960(%ebp), %edx
	movl	%edx, 4(%esp)
	leal	-23788(%ebp), %eax
	movl	%eax, (%esp)
	call	tmpnComputeIK
	.loc 1 734 0
	movl	-21504(%ebp), %eax
	movl	%eax, -24352(%ebp)
	movl	-21500(%ebp), %eax
	movl	%eax, -24348(%ebp)
	movl	-21496(%ebp), %eax
	movl	%eax, -24344(%ebp)
	movl	-21492(%ebp), %eax
	movl	%eax, -24340(%ebp)
	movl	-21488(%ebp), %eax
	movl	%eax, -24336(%ebp)
	movl	-21484(%ebp), %eax
	movl	%eax, -24332(%ebp)
	.loc 1 735 0
	movl	-24284(%ebp), %edi
	movl	-24288(%ebp), %esi
	movl	-24292(%ebp), %ebx
	movl	-24296(%ebp), %ecx
	movl	-24300(%ebp), %edx
	movl	-24304(%ebp), %eax
	movl	%eax, -26960(%ebp)
	movl	36(%ebp), %eax
	movl	%eax, -26936(%ebp)
	movl	-26936(%ebp), %eax
	movl	%eax, 28(%esp)
	movl	%edi, 24(%esp)
	movl	%esi, 20(%esp)
	movl	%ebx, 16(%esp)
	movl	%ecx, 12(%esp)
	movl	%edx, 8(%esp)
	movl	-26960(%ebp), %edx
	movl	%edx, 4(%esp)
	leal	-23788(%ebp), %eax
	movl	%eax, (%esp)
	call	tmpnComputeIK
	.loc 1 736 0
	movl	-21504(%ebp), %eax
	movl	%eax, -24376(%ebp)
	movl	-21500(%ebp), %eax
	movl	%eax, -24372(%ebp)
	movl	-21496(%ebp), %eax
	movl	%eax, -24368(%ebp)
	movl	-21492(%ebp), %eax
	movl	%eax, -24364(%ebp)
	movl	-21488(%ebp), %eax
	movl	%eax, -24360(%ebp)
	movl	-21484(%ebp), %eax
	movl	%eax, -24356(%ebp)
	.loc 1 738 0
	movl	-24260(%ebp), %edi
	movl	-24264(%ebp), %esi
	movl	-24268(%ebp), %ebx
	movl	-24272(%ebp), %ecx
	movl	-24276(%ebp), %edx
	movl	-24280(%ebp), %eax
	movl	%eax, -26960(%ebp)
	movl	40(%ebp), %eax
	movl	%eax, -26940(%ebp)
	movl	-26940(%ebp), %eax
	movl	%eax, 28(%esp)
	movl	%edi, 24(%esp)
	movl	%esi, 20(%esp)
	movl	%ebx, 16(%esp)
	movl	%ecx, 12(%esp)
	movl	%edx, 8(%esp)
	movl	-26960(%ebp), %edx
	movl	%edx, 4(%esp)
	leal	-23788(%ebp), %eax
	movl	%eax, (%esp)
	call	tmpnComputeIK
	.loc 1 739 0
	movl	-21504(%ebp), %eax
	movl	%eax, -24400(%ebp)
	movl	-21500(%ebp), %eax
	movl	%eax, -24396(%ebp)
	movl	-21496(%ebp), %eax
	movl	%eax, -24392(%ebp)
	movl	-21492(%ebp), %eax
	movl	%eax, -24388(%ebp)
	movl	-21488(%ebp), %eax
	movl	%eax, -24384(%ebp)
	movl	-21484(%ebp), %eax
	movl	%eax, -24380(%ebp)
	.loc 1 740 0
	movl	-24308(%ebp), %edi
	movl	-24312(%ebp), %esi
	movl	-24316(%ebp), %ebx
	movl	-24320(%ebp), %ecx
	movl	-24324(%ebp), %edx
	movl	-24328(%ebp), %eax
	movl	%eax, -26960(%ebp)
	movl	40(%ebp), %eax
	movl	%eax, -26944(%ebp)
	movl	-26944(%ebp), %eax
	movl	%eax, 28(%esp)
	movl	%edi, 24(%esp)
	movl	%esi, 20(%esp)
	movl	%ebx, 16(%esp)
	movl	%ecx, 12(%esp)
	movl	%edx, 8(%esp)
	movl	-26960(%ebp), %edx
	movl	%edx, 4(%esp)
	leal	-23788(%ebp), %eax
	movl	%eax, (%esp)
	call	tmpnComputeIK
	.loc 1 741 0
	movl	-21504(%ebp), %eax
	movl	%eax, -24424(%ebp)
	movl	-21500(%ebp), %eax
	movl	%eax, -24420(%ebp)
	movl	-21496(%ebp), %eax
	movl	%eax, -24416(%ebp)
	movl	-21492(%ebp), %eax
	movl	%eax, -24412(%ebp)
	movl	-21488(%ebp), %eax
	movl	%eax, -24408(%ebp)
	movl	-21484(%ebp), %eax
	movl	%eax, -24404(%ebp)
	.loc 1 743 0
	flds	-24376(%ebp)
	flds	-24352(%ebp)
	fsubrp	%st, %st(1)
	flds	.LC37
	fmulp	%st, %st(1)
	fstps	-24448(%ebp)
	.loc 1 744 0
	flds	-24372(%ebp)
	flds	-24348(%ebp)
	fsubrp	%st, %st(1)
	flds	.LC37
	fmulp	%st, %st(1)
	fstps	-24444(%ebp)
	.loc 1 745 0
	flds	-24368(%ebp)
	flds	-24344(%ebp)
	fsubrp	%st, %st(1)
	flds	.LC37
	fmulp	%st, %st(1)
	fstps	-24440(%ebp)
	.loc 1 746 0
	flds	-24364(%ebp)
	flds	-24340(%ebp)
	fsubrp	%st, %st(1)
	flds	.LC37
	fmulp	%st, %st(1)
	fstps	-24436(%ebp)
	.loc 1 747 0
	flds	-24360(%ebp)
	flds	-24336(%ebp)
	fsubrp	%st, %st(1)
	flds	.LC37
	fmulp	%st, %st(1)
	fstps	-24432(%ebp)
	.loc 1 748 0
	flds	-24356(%ebp)
	flds	-24332(%ebp)
	fsubrp	%st, %st(1)
	flds	.LC37
	fmulp	%st, %st(1)
	fstps	-24428(%ebp)
	.loc 1 750 0
	flds	-24424(%ebp)
	flds	-24400(%ebp)
	fsubrp	%st, %st(1)
	flds	.LC37
	fmulp	%st, %st(1)
	fstps	-24472(%ebp)
	.loc 1 751 0
	flds	-24420(%ebp)
	flds	-24396(%ebp)
	fsubrp	%st, %st(1)
	flds	.LC37
	fmulp	%st, %st(1)
	fstps	-24468(%ebp)
	.loc 1 752 0
	flds	-24416(%ebp)
	flds	-24392(%ebp)
	fsubrp	%st, %st(1)
	flds	.LC37
	fmulp	%st, %st(1)
	fstps	-24464(%ebp)
	.loc 1 753 0
	flds	-24412(%ebp)
	flds	-24388(%ebp)
	fsubrp	%st, %st(1)
	flds	.LC37
	fmulp	%st, %st(1)
	fstps	-24460(%ebp)
	.loc 1 754 0
	flds	-24408(%ebp)
	flds	-24384(%ebp)
	fsubrp	%st, %st(1)
	flds	.LC37
	fmulp	%st, %st(1)
	fstps	-24456(%ebp)
	.loc 1 755 0
	flds	-24404(%ebp)
	flds	-24380(%ebp)
	fsubrp	%st, %st(1)
	flds	.LC37
	fmulp	%st, %st(1)
	fstps	-24452(%ebp)
	.loc 1 763 0
	leal	-24824(%ebp), %ebx
	movl	$0, %eax
	movl	$10, %edx
	movl	%ebx, %edi
	movl	%edx, %ecx
	rep stosl
	.loc 1 764 0
	leal	-24864(%ebp), %ebx
	movl	$0, %eax
	movl	$10, %edx
	movl	%ebx, %edi
	movl	%edx, %ecx
	rep stosl
	.loc 1 765 0
	leal	-24904(%ebp), %ebx
	movl	$0, %eax
	movl	$10, %edx
	movl	%ebx, %edi
	movl	%edx, %ecx
	rep stosl
	.loc 1 766 0
	leal	-24944(%ebp), %ebx
	movl	$0, %eax
	movl	$10, %edx
	movl	%ebx, %edi
	movl	%edx, %ecx
	rep stosl
	.loc 1 770 0
	movl	28(%ebp), %eax
	cmpl	$1, %eax
	je	.L177
	cmpl	$1, %eax
	jg	.L180
	testl	%eax, %eax
	je	.L176
	jmp	.L175
.L180:
	cmpl	$2, %eax
	je	.L178
	cmpl	$3, %eax
	je	.L179
	jmp	.L175
.L176:
	.loc 1 772 0
	flds	-24064(%ebp)
	fstpl	-24824(%ebp)
	.loc 1 773 0
	flds	-24060(%ebp)
	fstpl	-24816(%ebp)
	.loc 1 774 0
	flds	-24056(%ebp)
	fstpl	-24808(%ebp)
	.loc 1 775 0
	flds	-24052(%ebp)
	fstpl	-24800(%ebp)
	.loc 1 776 0
	flds	-24048(%ebp)
	fstpl	-24792(%ebp)
	.loc 1 778 0
	flds	-24088(%ebp)
	fstpl	-24904(%ebp)
	.loc 1 779 0
	flds	-24084(%ebp)
	fstpl	-24896(%ebp)
	.loc 1 780 0
	flds	-24080(%ebp)
	fstpl	-24888(%ebp)
	.loc 1 781 0
	flds	-24076(%ebp)
	fstpl	-24880(%ebp)
	.loc 1 782 0
	flds	-24072(%ebp)
	fstpl	-24872(%ebp)
	.loc 1 783 0
	jmp	.L175
.L177:
	.loc 1 785 0
	flds	-24352(%ebp)
	fstpl	-24824(%ebp)
	.loc 1 786 0
	flds	-24348(%ebp)
	fstpl	-24816(%ebp)
	.loc 1 787 0
	flds	-24344(%ebp)
	fstpl	-24808(%ebp)
	.loc 1 788 0
	flds	-24340(%ebp)
	fstpl	-24800(%ebp)
	.loc 1 789 0
	flds	-24336(%ebp)
	fstpl	-24792(%ebp)
	.loc 1 791 0
	flds	-24448(%ebp)
	fstpl	-24864(%ebp)
	.loc 1 792 0
	flds	-24444(%ebp)
	fstpl	-24856(%ebp)
	.loc 1 793 0
	flds	-24440(%ebp)
	fstpl	-24848(%ebp)
	.loc 1 794 0
	flds	-24436(%ebp)
	fstpl	-24840(%ebp)
	.loc 1 795 0
	flds	-24432(%ebp)
	fstpl	-24832(%ebp)
	.loc 1 797 0
	flds	-24088(%ebp)
	fstpl	-24904(%ebp)
	.loc 1 798 0
	flds	-24084(%ebp)
	fstpl	-24896(%ebp)
	.loc 1 799 0
	flds	-24080(%ebp)
	fstpl	-24888(%ebp)
	.loc 1 800 0
	flds	-24076(%ebp)
	fstpl	-24880(%ebp)
	.loc 1 801 0
	flds	-24072(%ebp)
	fstpl	-24872(%ebp)
	.loc 1 802 0
	jmp	.L175
.L178:
	.loc 1 804 0
	flds	-24064(%ebp)
	fstpl	-24824(%ebp)
	.loc 1 805 0
	flds	-24060(%ebp)
	fstpl	-24816(%ebp)
	.loc 1 806 0
	flds	-24056(%ebp)
	fstpl	-24808(%ebp)
	.loc 1 807 0
	flds	-24052(%ebp)
	fstpl	-24800(%ebp)
	.loc 1 808 0
	flds	-24048(%ebp)
	fstpl	-24792(%ebp)
	.loc 1 810 0
	flds	-24400(%ebp)
	fstpl	-24904(%ebp)
	.loc 1 811 0
	flds	-24396(%ebp)
	fstpl	-24896(%ebp)
	.loc 1 812 0
	flds	-24392(%ebp)
	fstpl	-24888(%ebp)
	.loc 1 813 0
	flds	-24388(%ebp)
	fstpl	-24880(%ebp)
	.loc 1 814 0
	flds	-24384(%ebp)
	fstpl	-24872(%ebp)
	.loc 1 816 0
	flds	-24472(%ebp)
	fstpl	-24944(%ebp)
	.loc 1 817 0
	flds	-24468(%ebp)
	fstpl	-24936(%ebp)
	.loc 1 818 0
	flds	-24464(%ebp)
	fstpl	-24928(%ebp)
	.loc 1 819 0
	flds	-24460(%ebp)
	fstpl	-24920(%ebp)
	.loc 1 820 0
	flds	-24456(%ebp)
	fstpl	-24912(%ebp)
	.loc 1 821 0
	jmp	.L175
.L179:
	.loc 1 823 0
	flds	-24352(%ebp)
	fstpl	-24824(%ebp)
	.loc 1 824 0
	flds	-24348(%ebp)
	fstpl	-24816(%ebp)
	.loc 1 825 0
	flds	-24344(%ebp)
	fstpl	-24808(%ebp)
	.loc 1 826 0
	flds	-24340(%ebp)
	fstpl	-24800(%ebp)
	.loc 1 827 0
	flds	-24336(%ebp)
	fstpl	-24792(%ebp)
	.loc 1 829 0
	flds	-24448(%ebp)
	fstpl	-24864(%ebp)
	.loc 1 830 0
	flds	-24444(%ebp)
	fstpl	-24856(%ebp)
	.loc 1 831 0
	flds	-24440(%ebp)
	fstpl	-24848(%ebp)
	.loc 1 832 0
	flds	-24436(%ebp)
	fstpl	-24840(%ebp)
	.loc 1 833 0
	flds	-24432(%ebp)
	fstpl	-24832(%ebp)
	.loc 1 835 0
	flds	-24400(%ebp)
	fstpl	-24904(%ebp)
	.loc 1 836 0
	flds	-24396(%ebp)
	fstpl	-24896(%ebp)
	.loc 1 837 0
	flds	-24392(%ebp)
	fstpl	-24888(%ebp)
	.loc 1 838 0
	flds	-24388(%ebp)
	fstpl	-24880(%ebp)
	.loc 1 839 0
	flds	-24384(%ebp)
	fstpl	-24872(%ebp)
	.loc 1 841 0
	flds	-24472(%ebp)
	fstpl	-24944(%ebp)
	.loc 1 842 0
	flds	-24468(%ebp)
	fstpl	-24936(%ebp)
	.loc 1 843 0
	flds	-24464(%ebp)
	fstpl	-24928(%ebp)
	.loc 1 844 0
	flds	-24460(%ebp)
	fstpl	-24920(%ebp)
	.loc 1 845 0
	flds	-24456(%ebp)
	fstpl	-24912(%ebp)
.L175:
	.loc 1 852 0
	leal	-25144(%ebp), %ebx
	movl	$0, %eax
	movl	$10, %edx
	movl	%ebx, %edi
	movl	%edx, %ecx
	rep stosl
	movl	-26772(%ebp), %eax
	flds	(%eax)
	flds	.LC38
	fmulp	%st, %st(1)
	fstpl	-25144(%ebp)
	movl	-26772(%ebp), %eax
	flds	4(%eax)
	flds	.LC39
	fmulp	%st, %st(1)
	flds	.LC40
	fdivrp	%st, %st(1)
	fstpl	-25136(%ebp)
	movl	-26772(%ebp), %eax
	flds	8(%eax)
	flds	.LC39
	fmulp	%st, %st(1)
	flds	.LC40
	fdivrp	%st, %st(1)
	fstpl	-25128(%ebp)
	movl	-26772(%ebp), %eax
	flds	12(%eax)
	flds	.LC39
	fmulp	%st, %st(1)
	flds	.LC40
	fdivrp	%st, %st(1)
	fstpl	-25120(%ebp)
	movl	-26772(%ebp), %eax
	flds	16(%eax)
	flds	.LC39
	fmulp	%st, %st(1)
	flds	.LC40
	fdivrp	%st, %st(1)
	fstpl	-25112(%ebp)
	.loc 1 853 0
	leal	-25184(%ebp), %ebx
	movl	$0, %eax
	movl	$10, %edx
	movl	%ebx, %edi
	movl	%edx, %ecx
	rep stosl
	movl	-26776(%ebp), %eax
	flds	(%eax)
	flds	.LC38
	fmulp	%st, %st(1)
	fstpl	-25184(%ebp)
	movl	-26776(%ebp), %eax
	flds	4(%eax)
	flds	.LC39
	fmulp	%st, %st(1)
	flds	.LC40
	fdivrp	%st, %st(1)
	fstpl	-25176(%ebp)
	movl	-26776(%ebp), %eax
	flds	8(%eax)
	flds	.LC39
	fmulp	%st, %st(1)
	flds	.LC40
	fdivrp	%st, %st(1)
	fstpl	-25168(%ebp)
	movl	-26776(%ebp), %eax
	flds	12(%eax)
	flds	.LC39
	fmulp	%st, %st(1)
	flds	.LC40
	fdivrp	%st, %st(1)
	fstpl	-25160(%ebp)
	movl	-26776(%ebp), %eax
	flds	16(%eax)
	flds	.LC39
	fmulp	%st, %st(1)
	flds	.LC40
	fdivrp	%st, %st(1)
	fstpl	-25152(%ebp)
	.loc 1 855 0
	fldl	-24824(%ebp)
	fldl	.LC41
	fmulp	%st, %st(1)
	fstpl	-24984(%ebp)
	.loc 1 856 0
	fldl	-24816(%ebp)
	fldl	.LC42
	fmulp	%st, %st(1)
	fldl	.LC43
	fdivrp	%st, %st(1)
	fstpl	-24976(%ebp)
	.loc 1 857 0
	fldl	-24808(%ebp)
	fldl	.LC42
	fmulp	%st, %st(1)
	fldl	.LC43
	fdivrp	%st, %st(1)
	fstpl	-24968(%ebp)
	.loc 1 858 0
	fldl	-24800(%ebp)
	fldl	.LC42
	fmulp	%st, %st(1)
	fldl	.LC43
	fdivrp	%st, %st(1)
	fstpl	-24960(%ebp)
	.loc 1 859 0
	fldl	-24792(%ebp)
	fldl	.LC42
	fmulp	%st, %st(1)
	fldl	.LC43
	fdivrp	%st, %st(1)
	fstpl	-24952(%ebp)
	.loc 1 860 0
	fldl	-24864(%ebp)
	fldl	.LC41
	fmulp	%st, %st(1)
	fstpl	-25024(%ebp)
	.loc 1 861 0
	fldl	-24856(%ebp)
	fldl	.LC42
	fmulp	%st, %st(1)
	fldl	.LC43
	fdivrp	%st, %st(1)
	fstpl	-25016(%ebp)
	.loc 1 862 0
	fldl	-24848(%ebp)
	fldl	.LC42
	fmulp	%st, %st(1)
	fldl	.LC43
	fdivrp	%st, %st(1)
	fstpl	-25008(%ebp)
	.loc 1 863 0
	fldl	-24840(%ebp)
	fldl	.LC42
	fmulp	%st, %st(1)
	fldl	.LC43
	fdivrp	%st, %st(1)
	fstpl	-25000(%ebp)
	.loc 1 864 0
	fldl	-24832(%ebp)
	fldl	.LC42
	fmulp	%st, %st(1)
	fldl	.LC43
	fdivrp	%st, %st(1)
	fstpl	-24992(%ebp)
	.loc 1 866 0
	fldl	-24904(%ebp)
	fldl	.LC41
	fmulp	%st, %st(1)
	fstpl	-25064(%ebp)
	.loc 1 867 0
	fldl	-24896(%ebp)
	fldl	.LC42
	fmulp	%st, %st(1)
	fldl	.LC43
	fdivrp	%st, %st(1)
	fstpl	-25056(%ebp)
	.loc 1 868 0
	fldl	-24888(%ebp)
	fldl	.LC42
	fmulp	%st, %st(1)
	fldl	.LC43
	fdivrp	%st, %st(1)
	fstpl	-25048(%ebp)
	.loc 1 869 0
	fldl	-24880(%ebp)
	fldl	.LC42
	fmulp	%st, %st(1)
	fldl	.LC43
	fdivrp	%st, %st(1)
	fstpl	-25040(%ebp)
	.loc 1 870 0
	fldl	-24872(%ebp)
	fldl	.LC42
	fmulp	%st, %st(1)
	fldl	.LC43
	fdivrp	%st, %st(1)
	fstpl	-25032(%ebp)
	.loc 1 871 0
	fldl	-24944(%ebp)
	fldl	.LC41
	fmulp	%st, %st(1)
	fstpl	-25104(%ebp)
	.loc 1 872 0
	fldl	-24936(%ebp)
	fldl	.LC42
	fmulp	%st, %st(1)
	fldl	.LC43
	fdivrp	%st, %st(1)
	fstpl	-25096(%ebp)
	.loc 1 873 0
	fldl	-24928(%ebp)
	fldl	.LC42
	fmulp	%st, %st(1)
	fldl	.LC43
	fdivrp	%st, %st(1)
	fstpl	-25088(%ebp)
	.loc 1 874 0
	fldl	-24920(%ebp)
	fldl	.LC42
	fmulp	%st, %st(1)
	fldl	.LC43
	fdivrp	%st, %st(1)
	fstpl	-25080(%ebp)
	.loc 1 875 0
	fldl	-24912(%ebp)
	fldl	.LC42
	fmulp	%st, %st(1)
	fldl	.LC43
	fdivrp	%st, %st(1)
	fstpl	-25072(%ebp)
	.loc 1 877 0
	movl	-25184(%ebp), %eax
	movl	%eax, 204(%esp)
	movl	-25180(%ebp), %eax
	movl	%eax, 208(%esp)
	movl	-25176(%ebp), %eax
	movl	%eax, 212(%esp)
	movl	-25172(%ebp), %eax
	movl	%eax, 216(%esp)
	movl	-25168(%ebp), %eax
	movl	%eax, 220(%esp)
	movl	-25164(%ebp), %eax
	movl	%eax, 224(%esp)
	movl	-25160(%ebp), %eax
	movl	%eax, 228(%esp)
	movl	-25156(%ebp), %eax
	movl	%eax, 232(%esp)
	movl	-25152(%ebp), %eax
	movl	%eax, 236(%esp)
	movl	-25148(%ebp), %eax
	movl	%eax, 240(%esp)
	movl	-25144(%ebp), %eax
	movl	%eax, 164(%esp)
	movl	-25140(%ebp), %eax
	movl	%eax, 168(%esp)
	movl	-25136(%ebp), %eax
	movl	%eax, 172(%esp)
	movl	-25132(%ebp), %eax
	movl	%eax, 176(%esp)
	movl	-25128(%ebp), %eax
	movl	%eax, 180(%esp)
	movl	-25124(%ebp), %eax
	movl	%eax, 184(%esp)
	movl	-25120(%ebp), %eax
	movl	%eax, 188(%esp)
	movl	-25116(%ebp), %eax
	movl	%eax, 192(%esp)
	movl	-25112(%ebp), %eax
	movl	%eax, 196(%esp)
	movl	-25108(%ebp), %eax
	movl	%eax, 200(%esp)
	movl	-25104(%ebp), %eax
	movl	%eax, 124(%esp)
	movl	-25100(%ebp), %eax
	movl	%eax, 128(%esp)
	movl	-25096(%ebp), %eax
	movl	%eax, 132(%esp)
	movl	-25092(%ebp), %eax
	movl	%eax, 136(%esp)
	movl	-25088(%ebp), %eax
	movl	%eax, 140(%esp)
	movl	-25084(%ebp), %eax
	movl	%eax, 144(%esp)
	movl	-25080(%ebp), %eax
	movl	%eax, 148(%esp)
	movl	-25076(%ebp), %eax
	movl	%eax, 152(%esp)
	movl	-25072(%ebp), %eax
	movl	%eax, 156(%esp)
	movl	-25068(%ebp), %eax
	movl	%eax, 160(%esp)
	movl	-25064(%ebp), %eax
	movl	%eax, 84(%esp)
	movl	-25060(%ebp), %eax
	movl	%eax, 88(%esp)
	movl	-25056(%ebp), %eax
	movl	%eax, 92(%esp)
	movl	-25052(%ebp), %eax
	movl	%eax, 96(%esp)
	movl	-25048(%ebp), %eax
	movl	%eax, 100(%esp)
	movl	-25044(%ebp), %eax
	movl	%eax, 104(%esp)
	movl	-25040(%ebp), %eax
	movl	%eax, 108(%esp)
	movl	-25036(%ebp), %eax
	movl	%eax, 112(%esp)
	movl	-25032(%ebp), %eax
	movl	%eax, 116(%esp)
	movl	-25028(%ebp), %eax
	movl	%eax, 120(%esp)
	movl	-25024(%ebp), %eax
	movl	%eax, 44(%esp)
	movl	-25020(%ebp), %eax
	movl	%eax, 48(%esp)
	movl	-25016(%ebp), %eax
	movl	%eax, 52(%esp)
	movl	-25012(%ebp), %eax
	movl	%eax, 56(%esp)
	movl	-25008(%ebp), %eax
	movl	%eax, 60(%esp)
	movl	-25004(%ebp), %eax
	movl	%eax, 64(%esp)
	movl	-25000(%ebp), %eax
	movl	%eax, 68(%esp)
	movl	-24996(%ebp), %eax
	movl	%eax, 72(%esp)
	movl	-24992(%ebp), %eax
	movl	%eax, 76(%esp)
	movl	-24988(%ebp), %eax
	movl	%eax, 80(%esp)
	movl	-24984(%ebp), %eax
	movl	%eax, 4(%esp)
	movl	-24980(%ebp), %eax
	movl	%eax, 8(%esp)
	movl	-24976(%ebp), %eax
	movl	%eax, 12(%esp)
	movl	-24972(%ebp), %eax
	movl	%eax, 16(%esp)
	movl	-24968(%ebp), %eax
	movl	%eax, 20(%esp)
	movl	-24964(%ebp), %eax
	movl	%eax, 24(%esp)
	movl	-24960(%ebp), %eax
	movl	%eax, 28(%esp)
	movl	-24956(%ebp), %eax
	movl	%eax, 32(%esp)
	movl	-24952(%ebp), %eax
	movl	%eax, 36(%esp)
	movl	-24948(%ebp), %eax
	movl	%eax, 40(%esp)
	leal	-26752(%ebp), %eax
	movl	%eax, (%esp)
	call	_ZN4baneC1E16tmpnJointsDUnionS0_S0_S0_S0_S0_
	.loc 1 878 0
	leal	-26752(%ebp), %eax
	movl	%eax, (%esp)
	call	_ZN4bane7optimerEv
	.loc 1 881 0
	leal	-23936(%ebp), %eax
	movl	%eax, 8(%esp)
	leal	-25584(%ebp), %eax
	movl	%eax, 4(%esp)
	leal	-26752(%ebp), %eax
	movl	%eax, (%esp)
	call	_ZN4bane9getResultER8baneConfRd
	.loc 1 883 0
	fldl	-23936(%ebp)
	fldl	.LC44
	fmulp	%st, %st(1)
	fldl	.LC17
	faddp	%st, %st(1)
	fnstcw	-26822(%ebp)
	movzwl	-26822(%ebp), %eax
	movb	$12, %ah
	movw	%ax, -26824(%ebp)
	fldcw	-26824(%ebp)
	fistpl	-23804(%ebp)
	fldcw	-26822(%ebp)
	.loc 1 884 0
	fldl	-23936(%ebp)
	fldl	.LC28
	fmulp	%st, %st(1)
	fstps	-23816(%ebp)
	.loc 1 889 0
	movl	28(%ebp), %eax
	cmpl	$1, %eax
	je	.L183
	cmpl	$1, %eax
	jg	.L186
	testl	%eax, %eax
	.loc 1 908 0
	jmp	.L181
.L186:
	.loc 1 889 0
	cmpl	$2, %eax
	je	.L184
	cmpl	$3, %eax
	je	.L185
	jmp	.L181
.L184:
	.loc 1 891 0
	movl	-24088(%ebp), %eax
	movl	%eax, -24568(%ebp)
	.loc 1 892 0
	movl	-24084(%ebp), %eax
	movl	%eax, -24564(%ebp)
	.loc 1 893 0
	movl	-24080(%ebp), %eax
	movl	%eax, -24560(%ebp)
	.loc 1 894 0
	movl	-24076(%ebp), %eax
	movl	%eax, -24556(%ebp)
	.loc 1 895 0
	movl	-24072(%ebp), %eax
	movl	%eax, -24552(%ebp)
	.loc 1 896 0
	movl	-24232(%ebp), %eax
	movl	%eax, -24592(%ebp)
	.loc 1 897 0
	movl	-24228(%ebp), %eax
	movl	%eax, -24588(%ebp)
	.loc 1 898 0
	movl	-24224(%ebp), %eax
	movl	%eax, -24584(%ebp)
	.loc 1 899 0
	movl	-24220(%ebp), %eax
	movl	%eax, -24580(%ebp)
	.loc 1 900 0
	movl	-24216(%ebp), %eax
	movl	%eax, -24576(%ebp)
	.loc 1 901 0
	movl	$0x00000000, %eax
	movl	%eax, -24616(%ebp)
	.loc 1 902 0
	movl	$0x00000000, %eax
	movl	%eax, -24612(%ebp)
	.loc 1 903 0
	movl	$0x00000000, %eax
	movl	%eax, -24608(%ebp)
	.loc 1 904 0
	movl	$0x00000000, %eax
	movl	%eax, -24604(%ebp)
	.loc 1 905 0
	movl	$0x00000000, %eax
	movl	%eax, -24600(%ebp)
	.loc 1 906 0
	jmp	.L181
.L185:
	.loc 1 910 0
	movl	-24088(%ebp), %eax
	movl	%eax, -24568(%ebp)
	.loc 1 911 0
	movl	-24084(%ebp), %eax
	movl	%eax, -24564(%ebp)
	.loc 1 912 0
	movl	-24080(%ebp), %eax
	movl	%eax, -24560(%ebp)
	.loc 1 913 0
	movl	-24076(%ebp), %eax
	movl	%eax, -24556(%ebp)
	.loc 1 914 0
	movl	-24072(%ebp), %eax
	movl	%eax, -24552(%ebp)
	.loc 1 915 0
	movl	-24232(%ebp), %eax
	movl	%eax, -24592(%ebp)
	.loc 1 916 0
	movl	-24228(%ebp), %eax
	movl	%eax, -24588(%ebp)
	.loc 1 917 0
	movl	-24224(%ebp), %eax
	movl	%eax, -24584(%ebp)
	.loc 1 918 0
	movl	-24220(%ebp), %eax
	movl	%eax, -24580(%ebp)
	.loc 1 919 0
	movl	-24216(%ebp), %eax
	movl	%eax, -24576(%ebp)
	.loc 1 920 0
	movl	$0x00000000, %eax
	movl	%eax, -24616(%ebp)
	.loc 1 921 0
	movl	$0x00000000, %eax
	movl	%eax, -24612(%ebp)
	.loc 1 922 0
	movl	$0x00000000, %eax
	movl	%eax, -24608(%ebp)
	.loc 1 923 0
	movl	$0x00000000, %eax
	movl	%eax, -24604(%ebp)
	.loc 1 924 0
	movl	$0x00000000, %eax
	movl	%eax, -24600(%ebp)
.L183:
	.loc 1 927 0
	movl	-24064(%ebp), %eax
	movl	%eax, -24496(%ebp)
	.loc 1 928 0
	movl	-24060(%ebp), %eax
	movl	%eax, -24492(%ebp)
	.loc 1 929 0
	movl	-24056(%ebp), %eax
	movl	%eax, -24488(%ebp)
	.loc 1 930 0
	movl	-24052(%ebp), %eax
	movl	%eax, -24484(%ebp)
	.loc 1 931 0
	movl	-24048(%ebp), %eax
	movl	%eax, -24480(%ebp)
	.loc 1 932 0
	movl	-24208(%ebp), %eax
	movl	%eax, -24520(%ebp)
	.loc 1 933 0
	movl	-24204(%ebp), %eax
	movl	%eax, -24516(%ebp)
	.loc 1 934 0
	movl	-24200(%ebp), %eax
	movl	%eax, -24512(%ebp)
	.loc 1 935 0
	movl	-24196(%ebp), %eax
	movl	%eax, -24508(%ebp)
	.loc 1 936 0
	movl	-24192(%ebp), %eax
	movl	%eax, -24504(%ebp)
	.loc 1 937 0
	movl	$0x00000000, %eax
	movl	%eax, -24544(%ebp)
	.loc 1 938 0
	movl	$0x00000000, %eax
	movl	%eax, -24540(%ebp)
	.loc 1 939 0
	movl	$0x00000000, %eax
	movl	%eax, -24536(%ebp)
	.loc 1 940 0
	movl	$0x00000000, %eax
	movl	%eax, -24532(%ebp)
	.loc 1 941 0
	movl	$0x00000000, %eax
	movl	%eax, -24528(%ebp)
.L181:
	.loc 1 944 0
	movl	$0x3f866666, %eax
	movl	%eax, -23828(%ebp)
	.loc 1 945 0
	fld1
	fdivs	-23828(%ebp)
	fstps	-23832(%ebp)
	.loc 1 948 0
	fldl	-24824(%ebp)
	fstps	-26820(%ebp)
	flds	-26820(%ebp)
	fstps	-24640(%ebp)
	.loc 1 949 0
	fldl	-24816(%ebp)
	fstps	-26820(%ebp)
	flds	-26820(%ebp)
	fstps	-24636(%ebp)
	.loc 1 950 0
	fldl	-24808(%ebp)
	fstps	-26820(%ebp)
	flds	-26820(%ebp)
	fstps	-24632(%ebp)
	.loc 1 951 0
	fldl	-24800(%ebp)
	fstps	-26820(%ebp)
	flds	-26820(%ebp)
	fstps	-24628(%ebp)
	.loc 1 952 0
	fldl	-24792(%ebp)
	fstps	-26820(%ebp)
	flds	-26820(%ebp)
	fstps	-24624(%ebp)
	.loc 1 953 0
	fldz
	fstpl	8(%esp)
	movl	$0, 4(%esp)
	leal	-26752(%ebp), %eax
	movl	%eax, (%esp)
	call	_ZN4bane10dcubicpolyEid
	fldl	.LC47
	fmulp	%st, %st(1)
	fstps	-26820(%ebp)
	flds	-26820(%ebp)
	fstps	-24664(%ebp)
	.loc 1 954 0
	fldz
	fstpl	8(%esp)
	movl	$1, 4(%esp)
	leal	-26752(%ebp), %eax
	movl	%eax, (%esp)
	call	_ZN4bane10dcubicpolyEid
	fldl	.LC43
	fmulp	%st, %st(1)
	fldl	.LC42
	fdivrp	%st, %st(1)
	fstps	-26820(%ebp)
	flds	-26820(%ebp)
	fstps	-24660(%ebp)
	.loc 1 955 0
	fldz
	fstpl	8(%esp)
	movl	$2, 4(%esp)
	leal	-26752(%ebp), %eax
	movl	%eax, (%esp)
	call	_ZN4bane10dcubicpolyEid
	fldl	.LC43
	fmulp	%st, %st(1)
	fldl	.LC42
	fdivrp	%st, %st(1)
	fstps	-26820(%ebp)
	flds	-26820(%ebp)
	fstps	-24656(%ebp)
	.loc 1 956 0
	fldz
	fstpl	8(%esp)
	movl	$3, 4(%esp)
	leal	-26752(%ebp), %eax
	movl	%eax, (%esp)
	call	_ZN4bane10dcubicpolyEid
	fldl	.LC43
	fmulp	%st, %st(1)
	fldl	.LC42
	fdivrp	%st, %st(1)
	fstps	-26820(%ebp)
	flds	-26820(%ebp)
	fstps	-24652(%ebp)
	.loc 1 957 0
	fldz
	fstpl	8(%esp)
	movl	$4, 4(%esp)
	leal	-26752(%ebp), %eax
	movl	%eax, (%esp)
	call	_ZN4bane10dcubicpolyEid
	fldl	.LC43
	fmulp	%st, %st(1)
	fldl	.LC42
	fdivrp	%st, %st(1)
	fstps	-26820(%ebp)
	flds	-26820(%ebp)
	fstps	-24648(%ebp)
	.loc 1 958 0
	flds	-24664(%ebp)
	fldl	.LC48
	fmulp	%st, %st(1)
	fstpl	-26912(%ebp)
	fldz
	fstpl	8(%esp)
	movl	$0, 4(%esp)
	leal	-26752(%ebp), %eax
	movl	%eax, (%esp)
	call	_ZN4bane11ddcubicpolyEid
	fldl	.LC47
	fmulp	%st, %st(1)
	flds	-23832(%ebp)
	fmulp	%st, %st(1)
	faddl	-26912(%ebp)
	fstps	-26820(%ebp)
	flds	-26820(%ebp)
	fstps	-24688(%ebp)
	.loc 1 959 0
	flds	-24660(%ebp)
	fldl	.LC48
	fmulp	%st, %st(1)
	fstpl	-26904(%ebp)
	fldz
	fstpl	8(%esp)
	movl	$1, 4(%esp)
	leal	-26752(%ebp), %eax
	movl	%eax, (%esp)
	call	_ZN4bane11ddcubicpolyEid
	fldl	.LC43
	fmulp	%st, %st(1)
	fldl	.LC42
	fdivrp	%st, %st(1)
	flds	-23832(%ebp)
	fmulp	%st, %st(1)
	faddl	-26904(%ebp)
	fstps	-26820(%ebp)
	flds	-26820(%ebp)
	fstps	-24684(%ebp)
	.loc 1 960 0
	flds	-24656(%ebp)
	fldl	.LC48
	fmulp	%st, %st(1)
	fstpl	-26896(%ebp)
	fldz
	fstpl	8(%esp)
	movl	$2, 4(%esp)
	leal	-26752(%ebp), %eax
	movl	%eax, (%esp)
	call	_ZN4bane11ddcubicpolyEid
	fldl	.LC43
	fmulp	%st, %st(1)
	fldl	.LC42
	fdivrp	%st, %st(1)
	flds	-23832(%ebp)
	fmulp	%st, %st(1)
	faddl	-26896(%ebp)
	fstps	-26820(%ebp)
	flds	-26820(%ebp)
	fstps	-24680(%ebp)
	.loc 1 961 0
	flds	-24652(%ebp)
	fldl	.LC48
	fmulp	%st, %st(1)
	fstpl	-26888(%ebp)
	fldz
	fstpl	8(%esp)
	movl	$3, 4(%esp)
	leal	-26752(%ebp), %eax
	movl	%eax, (%esp)
	call	_ZN4bane11ddcubicpolyEid
	fldl	.LC43
	fmulp	%st, %st(1)
	fldl	.LC42
	fdivrp	%st, %st(1)
	flds	-23832(%ebp)
	fmulp	%st, %st(1)
	faddl	-26888(%ebp)
	fstps	-26820(%ebp)
	flds	-26820(%ebp)
	fstps	-24676(%ebp)
	.loc 1 962 0
	flds	-24648(%ebp)
	fldl	.LC48
	fmulp	%st, %st(1)
	fstpl	-26880(%ebp)
	fldz
	fstpl	8(%esp)
	movl	$4, 4(%esp)
	leal	-26752(%ebp), %eax
	movl	%eax, (%esp)
	call	_ZN4bane11ddcubicpolyEid
	fldl	.LC43
	fmulp	%st, %st(1)
	fldl	.LC42
	fdivrp	%st, %st(1)
	flds	-23832(%ebp)
	fmulp	%st, %st(1)
	faddl	-26880(%ebp)
	fstps	-26820(%ebp)
	flds	-26820(%ebp)
	fstps	-24672(%ebp)
	.loc 1 964 0
	fldl	-24904(%ebp)
	fstps	-26820(%ebp)
	flds	-26820(%ebp)
	fstps	-24712(%ebp)
	.loc 1 965 0
	fldl	-24896(%ebp)
	fstps	-26820(%ebp)
	flds	-26820(%ebp)
	fstps	-24708(%ebp)
	.loc 1 966 0
	fldl	-24888(%ebp)
	fstps	-26820(%ebp)
	flds	-26820(%ebp)
	fstps	-24704(%ebp)
	.loc 1 967 0
	fldl	-24880(%ebp)
	fstps	-26820(%ebp)
	flds	-26820(%ebp)
	fstps	-24700(%ebp)
	.loc 1 968 0
	fldl	-24872(%ebp)
	fstps	-26820(%ebp)
	flds	-26820(%ebp)
	fstps	-24696(%ebp)
	.loc 1 970 0
	fldl	-23936(%ebp)
	fldl	.LC49
	fmulp	%st, %st(1)
	fstps	-23836(%ebp)
	.loc 1 972 0
	flds	-23836(%ebp)
	fstpl	8(%esp)
	movl	$0, 4(%esp)
	leal	-26752(%ebp), %eax
	movl	%eax, (%esp)
	call	_ZN4bane10dcubicpolyEid
	fldl	.LC47
	fmulp	%st, %st(1)
	fstps	-26820(%ebp)
	flds	-26820(%ebp)
	fstps	-24736(%ebp)
	.loc 1 973 0
	flds	-23836(%ebp)
	fstpl	8(%esp)
	movl	$1, 4(%esp)
	leal	-26752(%ebp), %eax
	movl	%eax, (%esp)
	call	_ZN4bane10dcubicpolyEid
	fldl	.LC43
	fmulp	%st, %st(1)
	fldl	.LC42
	fdivrp	%st, %st(1)
	fstps	-26820(%ebp)
	flds	-26820(%ebp)
	fstps	-24732(%ebp)
	.loc 1 974 0
	flds	-23836(%ebp)
	fstpl	8(%esp)
	movl	$2, 4(%esp)
	leal	-26752(%ebp), %eax
	movl	%eax, (%esp)
	call	_ZN4bane10dcubicpolyEid
	fldl	.LC43
	fmulp	%st, %st(1)
	fldl	.LC42
	fdivrp	%st, %st(1)
	fstps	-26820(%ebp)
	flds	-26820(%ebp)
	fstps	-24728(%ebp)
	.loc 1 975 0
	flds	-23836(%ebp)
	fstpl	8(%esp)
	movl	$3, 4(%esp)
	leal	-26752(%ebp), %eax
	movl	%eax, (%esp)
	call	_ZN4bane10dcubicpolyEid
	fldl	.LC43
	fmulp	%st, %st(1)
	fldl	.LC42
	fdivrp	%st, %st(1)
	fstps	-26820(%ebp)
	flds	-26820(%ebp)
	fstps	-24724(%ebp)
	.loc 1 976 0
	flds	-23836(%ebp)
	fstpl	8(%esp)
	movl	$4, 4(%esp)
	leal	-26752(%ebp), %eax
	movl	%eax, (%esp)
	call	_ZN4bane10dcubicpolyEid
	fldl	.LC43
	fmulp	%st, %st(1)
	fldl	.LC42
	fdivrp	%st, %st(1)
	fstps	-26820(%ebp)
	flds	-26820(%ebp)
	fstps	-24720(%ebp)
	.loc 1 977 0
	flds	-24736(%ebp)
	fldl	.LC48
	fmulp	%st, %st(1)
	fstpl	-26872(%ebp)
	flds	-23836(%ebp)
	fstpl	8(%esp)
	movl	$0, 4(%esp)
	leal	-26752(%ebp), %eax
	movl	%eax, (%esp)
	call	_ZN4bane11ddcubicpolyEid
	fldl	.LC47
	fmulp	%st, %st(1)
	flds	-23832(%ebp)
	fmulp	%st, %st(1)
	faddl	-26872(%ebp)
	fstps	-26820(%ebp)
	flds	-26820(%ebp)
	fstps	-24760(%ebp)
	.loc 1 978 0
	flds	-24732(%ebp)
	fldl	.LC48
	fmulp	%st, %st(1)
	fstpl	-26864(%ebp)
	flds	-23836(%ebp)
	fstpl	8(%esp)
	movl	$1, 4(%esp)
	leal	-26752(%ebp), %eax
	movl	%eax, (%esp)
	call	_ZN4bane11ddcubicpolyEid
	fldl	.LC43
	fmulp	%st, %st(1)
	fldl	.LC42
	fdivrp	%st, %st(1)
	flds	-23832(%ebp)
	fmulp	%st, %st(1)
	faddl	-26864(%ebp)
	fstps	-26820(%ebp)
	flds	-26820(%ebp)
	fstps	-24756(%ebp)
	.loc 1 979 0
	flds	-24728(%ebp)
	fldl	.LC48
	fmulp	%st, %st(1)
	fstpl	-26856(%ebp)
	flds	-23836(%ebp)
	fstpl	8(%esp)
	movl	$2, 4(%esp)
	leal	-26752(%ebp), %eax
	movl	%eax, (%esp)
	call	_ZN4bane11ddcubicpolyEid
	fldl	.LC43
	fmulp	%st, %st(1)
	fldl	.LC42
	fdivrp	%st, %st(1)
	flds	-23832(%ebp)
	fmulp	%st, %st(1)
	faddl	-26856(%ebp)
	fstps	-26820(%ebp)
	flds	-26820(%ebp)
	fstps	-24752(%ebp)
	.loc 1 980 0
	flds	-24724(%ebp)
	fldl	.LC48
	fmulp	%st, %st(1)
	fstpl	-26848(%ebp)
	flds	-23836(%ebp)
	fstpl	8(%esp)
	movl	$3, 4(%esp)
	leal	-26752(%ebp), %eax
	movl	%eax, (%esp)
	call	_ZN4bane11ddcubicpolyEid
	fldl	.LC43
	fmulp	%st, %st(1)
	fldl	.LC42
	fdivrp	%st, %st(1)
	flds	-23832(%ebp)
	fmulp	%st, %st(1)
	faddl	-26848(%ebp)
	fstps	-26820(%ebp)
	flds	-26820(%ebp)
	fstps	-24748(%ebp)
	.loc 1 981 0
	flds	-24720(%ebp)
	fldl	.LC48
	fmulp	%st, %st(1)
	fstpl	-26840(%ebp)
	flds	-23836(%ebp)
	fstpl	8(%esp)
	movl	$4, 4(%esp)
	leal	-26752(%ebp), %eax
	movl	%eax, (%esp)
	call	_ZN4bane11ddcubicpolyEid
	fldl	.LC43
	fmulp	%st, %st(1)
	fldl	.LC42
	fdivrp	%st, %st(1)
	flds	-23832(%ebp)
	fmulp	%st, %st(1)
	faddl	-26840(%ebp)
	fstps	-26820(%ebp)
	flds	-26820(%ebp)
	fstps	-24744(%ebp)
	.loc 1 984 0
	cmpl	$1, 28(%ebp)
	je	.L187
	cmpl	$3, 28(%ebp)
	jne	.L188
.L187:
.LBB34:
	.loc 1 986 0
	movl	$0x00000000, %eax
	movl	%eax, -23844(%ebp)
	movl	$0x40a00000, %eax
	movl	%eax, -23848(%ebp)
	.loc 1 987 0
	flds	-23848(%ebp)
	fadds	-23844(%ebp)
	flds	.LC18
	fmulp	%st, %st(1)
	fstps	-23852(%ebp)
	.loc 1 988 0
	movl	-23852(%ebp), %eax
	movl	%eax, -23840(%ebp)
	.loc 1 989 0
	flds	-23848(%ebp)
	fsubs	-23844(%ebp)
	fstps	-23856(%ebp)
	.loc 1 991 0
	jmp	.L189
.L197:
	.loc 1 993 0
	cmpl	$1, 92(%ebp)
	jne	.L190
	.loc 1 995 0
	movl	-26776(%ebp), %eax
	movl	%eax, 28(%esp)
	movl	-23840(%ebp), %eax
	movl	%eax, 24(%esp)
	leal	-24688(%ebp), %eax
	movl	%eax, 20(%esp)
	leal	-24664(%ebp), %eax
	movl	%eax, 16(%esp)
	leal	-24640(%ebp), %eax
	movl	%eax, 12(%esp)
	leal	-24544(%ebp), %eax
	movl	%eax, 8(%esp)
	leal	-24520(%ebp), %eax
	movl	%eax, 4(%esp)
	leal	-24496(%ebp), %eax
	movl	%eax, (%esp)
	call	blendquinticmaxacc
	fstps	-23860(%ebp)
	.loc 1 996 0
	movl	-26772(%ebp), %eax
	movl	%eax, 28(%esp)
	movl	-23840(%ebp), %eax
	movl	%eax, 24(%esp)
	leal	-24688(%ebp), %eax
	movl	%eax, 20(%esp)
	leal	-24664(%ebp), %eax
	movl	%eax, 16(%esp)
	leal	-24640(%ebp), %eax
	movl	%eax, 12(%esp)
	leal	-24544(%ebp), %eax
	movl	%eax, 8(%esp)
	leal	-24520(%ebp), %eax
	movl	%eax, 4(%esp)
	leal	-24496(%ebp), %eax
	movl	%eax, (%esp)
	call	blendquinticmaxvel
	fstps	-23864(%ebp)
	jmp	.L191
.L190:
	.loc 1 1000 0
	movl	-26776(%ebp), %eax
	movl	%eax, 20(%esp)
	movl	-23840(%ebp), %eax
	movl	%eax, 16(%esp)
	leal	-24664(%ebp), %eax
	movl	%eax, 12(%esp)
	leal	-24640(%ebp), %eax
	movl	%eax, 8(%esp)
	leal	-24520(%ebp), %eax
	movl	%eax, 4(%esp)
	leal	-24496(%ebp), %eax
	movl	%eax, (%esp)
	call	blendcubicmaxacc
	fstps	-23860(%ebp)
	.loc 1 1001 0
	movl	-26772(%ebp), %eax
	movl	%eax, 20(%esp)
	movl	-23840(%ebp), %eax
	movl	%eax, 16(%esp)
	leal	-24664(%ebp), %eax
	movl	%eax, 12(%esp)
	leal	-24640(%ebp), %eax
	movl	%eax, 8(%esp)
	leal	-24520(%ebp), %eax
	movl	%eax, 4(%esp)
	leal	-24496(%ebp), %eax
	movl	%eax, (%esp)
	call	blendcubicmaxvel
	fstps	-23864(%ebp)
.L191:
	.loc 1 1003 0
	flds	-23860(%ebp)
	flds	-23864(%ebp)
	fucompp
	fnstsw	%ax
	testb	$69, %ah
	sete	%al
	testb	%al, %al
	je	.L192
	.loc 1 1004 0
	movl	-23864(%ebp), %eax
	movl	%eax, -23860(%ebp)
.L192:
	.loc 1 1006 0
	flds	-23860(%ebp)
	fld1
	fxch	%st(1)
	fucompp
	fnstsw	%ax
	sahf
	seta	%al
	testb	%al, %al
	je	.L193
	.loc 1 1007 0
	movl	-23852(%ebp), %eax
	movl	%eax, -23844(%ebp)
	jmp	.L194
.L193:
	.loc 1 1009 0
	flds	-23860(%ebp)
	fld1
	fucompp
	fnstsw	%ax
	testb	$69, %ah
	sete	%al
	testb	%al, %al
	je	.L245
	.loc 1 1010 0
	movl	-23852(%ebp), %eax
	movl	%eax, -23848(%ebp)
.L194:
	.loc 1 1013 0
	flds	-23848(%ebp)
	fadds	-23844(%ebp)
	flds	.LC18
	fmulp	%st, %st(1)
	fstps	-23852(%ebp)
	.loc 1 1014 0
	movl	-23852(%ebp), %eax
	movl	%eax, -23840(%ebp)
	.loc 1 1015 0
	flds	-23848(%ebp)
	fsubs	-23844(%ebp)
	fstps	-23856(%ebp)
.L189:
	.loc 1 991 0
	flds	-23856(%ebp)
	fldl	.LC51
	fxch	%st(1)
	fucompp
	fnstsw	%ax
	sahf
	seta	%al
	testb	%al, %al
	jne	.L197
	jmp	.L196
.L245:
	.loc 1 1012 0
	nop
.L196:
	.loc 1 1018 0
	flds	-23840(%ebp)
	flds	.LC35
	fmulp	%st, %st(1)
	fldl	.LC17
	faddp	%st, %st(1)
	fnstcw	-26822(%ebp)
	movzwl	-26822(%ebp), %eax
	movb	$12, %ah
	movw	%ax, -26824(%ebp)
	fldcw	-26824(%ebp)
	fistpl	-23808(%ebp)
	fldcw	-26822(%ebp)
	.loc 1 1019 0
	flds	-23816(%ebp)
	fadds	-23840(%ebp)
	fstps	-23816(%ebp)
.L188:
.LBE34:
	.loc 1 1022 0
	cmpl	$2, 28(%ebp)
	je	.L198
	cmpl	$3, 28(%ebp)
	jne	.L250
.L198:
.LBB35:
	.loc 1 1024 0
	movl	$0x00000000, %eax
	movl	%eax, -23872(%ebp)
	movl	$0x40a00000, %eax
	movl	%eax, -23876(%ebp)
	.loc 1 1025 0
	flds	-23876(%ebp)
	fadds	-23872(%ebp)
	flds	.LC18
	fmulp	%st, %st(1)
	fstps	-23880(%ebp)
	.loc 1 1026 0
	movl	-23880(%ebp), %eax
	movl	%eax, -23868(%ebp)
	.loc 1 1028 0
	flds	-23876(%ebp)
	fsubs	-23872(%ebp)
	fstps	-23892(%ebp)
	.loc 1 1029 0
	jmp	.L200
.L208:
	.loc 1 1030 0
	cmpl	$1, 92(%ebp)
	jne	.L201
	.loc 1 1032 0
	movl	-26776(%ebp), %eax
	movl	%eax, 28(%esp)
	movl	-23868(%ebp), %eax
	movl	%eax, 24(%esp)
	leal	-24616(%ebp), %eax
	movl	%eax, 20(%esp)
	leal	-24592(%ebp), %eax
	movl	%eax, 16(%esp)
	leal	-24568(%ebp), %eax
	movl	%eax, 12(%esp)
	leal	-24760(%ebp), %eax
	movl	%eax, 8(%esp)
	leal	-24736(%ebp), %eax
	movl	%eax, 4(%esp)
	leal	-24712(%ebp), %eax
	movl	%eax, (%esp)
	call	blendquinticmaxacc
	fstps	-23884(%ebp)
	.loc 1 1033 0
	movl	-26772(%ebp), %eax
	movl	%eax, 28(%esp)
	movl	-23868(%ebp), %eax
	movl	%eax, 24(%esp)
	leal	-24616(%ebp), %eax
	movl	%eax, 20(%esp)
	leal	-24592(%ebp), %eax
	movl	%eax, 16(%esp)
	leal	-24568(%ebp), %eax
	movl	%eax, 12(%esp)
	leal	-24760(%ebp), %eax
	movl	%eax, 8(%esp)
	leal	-24736(%ebp), %eax
	movl	%eax, 4(%esp)
	leal	-24712(%ebp), %eax
	movl	%eax, (%esp)
	call	blendquinticmaxvel
	fstps	-23888(%ebp)
	jmp	.L202
.L201:
	.loc 1 1037 0
	movl	-26776(%ebp), %eax
	movl	%eax, 20(%esp)
	movl	-23868(%ebp), %eax
	movl	%eax, 16(%esp)
	leal	-24592(%ebp), %eax
	movl	%eax, 12(%esp)
	leal	-24568(%ebp), %eax
	movl	%eax, 8(%esp)
	leal	-24736(%ebp), %eax
	movl	%eax, 4(%esp)
	leal	-24712(%ebp), %eax
	movl	%eax, (%esp)
	call	blendcubicmaxacc
	fstps	-23884(%ebp)
	.loc 1 1038 0
	movl	-26772(%ebp), %eax
	movl	%eax, 20(%esp)
	movl	-23868(%ebp), %eax
	movl	%eax, 16(%esp)
	leal	-24592(%ebp), %eax
	movl	%eax, 12(%esp)
	leal	-24568(%ebp), %eax
	movl	%eax, 8(%esp)
	leal	-24736(%ebp), %eax
	movl	%eax, 4(%esp)
	leal	-24712(%ebp), %eax
	movl	%eax, (%esp)
	call	blendcubicmaxvel
	fstps	-23888(%ebp)
.L202:
	.loc 1 1040 0
	flds	-23884(%ebp)
	flds	-23888(%ebp)
	fucompp
	fnstsw	%ax
	testb	$69, %ah
	sete	%al
	testb	%al, %al
	je	.L203
	.loc 1 1041 0
	movl	-23888(%ebp), %eax
	movl	%eax, -23884(%ebp)
.L203:
	.loc 1 1044 0
	flds	-23884(%ebp)
	fld1
	fxch	%st(1)
	fucompp
	fnstsw	%ax
	sahf
	seta	%al
	testb	%al, %al
	je	.L204
	.loc 1 1045 0
	movl	-23880(%ebp), %eax
	movl	%eax, -23872(%ebp)
	jmp	.L205
.L204:
	.loc 1 1047 0
	flds	-23884(%ebp)
	fld1
	fucompp
	fnstsw	%ax
	testb	$69, %ah
	sete	%al
	testb	%al, %al
	je	.L246
	.loc 1 1048 0
	movl	-23880(%ebp), %eax
	movl	%eax, -23876(%ebp)
.L205:
	.loc 1 1051 0
	flds	-23876(%ebp)
	fadds	-23872(%ebp)
	flds	.LC18
	fmulp	%st, %st(1)
	fstps	-23880(%ebp)
	.loc 1 1052 0
	movl	-23880(%ebp), %eax
	movl	%eax, -23868(%ebp)
	.loc 1 1053 0
	flds	-23876(%ebp)
	fsubs	-23872(%ebp)
	fstps	-23892(%ebp)
.L200:
	.loc 1 1029 0
	flds	-23892(%ebp)
	fldl	.LC51
	fxch	%st(1)
	fucompp
	fnstsw	%ax
	sahf
	seta	%al
	testb	%al, %al
	jne	.L208
	jmp	.L207
.L246:
	.loc 1 1050 0
	nop
.L207:
	.loc 1 1056 0
	flds	-23868(%ebp)
	flds	.LC35
	fmulp	%st, %st(1)
	fldl	.LC17
	faddp	%st, %st(1)
	fnstcw	-26822(%ebp)
	movzwl	-26822(%ebp), %eax
	movb	$12, %ah
	movw	%ax, -26824(%ebp)
	fldcw	-26824(%ebp)
	fistpl	-23812(%ebp)
	fldcw	-26822(%ebp)
	.loc 1 1057 0
	flds	-23816(%ebp)
	fadds	-23868(%ebp)
	fstps	-23816(%ebp)
	jmp	.L199
.L250:
	fnstcw	-26822(%ebp)
	movzwl	-26822(%ebp), %eax
	movb	$12, %ah
	movw	%ax, -26824(%ebp)
.L199:
.LBE35:
	.loc 1 1063 0
	movl	-26812(%ebp), %eax
	movl	(%eax), %eax
	testl	%eax, %eax
	je	.L209
	.loc 1 1064 0
	movl	-23820(%ebp), %eax
	addl	%eax, -23804(%ebp)
	.loc 1 1065 0
	flds	-23816(%ebp)
	fildl	-23820(%ebp)
	fldl	.LC52
	fmulp	%st, %st(1)
	faddp	%st, %st(1)
	fstps	-23816(%ebp)
.L209:
	.loc 1 1067 0
	movl	-26816(%ebp), %eax
	movl	(%eax), %eax
	testl	%eax, %eax
	je	.L210
	.loc 1 1068 0
	movl	-23824(%ebp), %eax
	addl	%eax, -23804(%ebp)
	.loc 1 1069 0
	flds	-23816(%ebp)
	fildl	-23824(%ebp)
	fldl	.LC52
	fmulp	%st, %st(1)
	faddp	%st, %st(1)
	fstps	-23816(%ebp)
.L210:
	.loc 1 1071 0
	cmpl	$1, 28(%ebp)
	jne	.L211
	.loc 1 1072 0
	movl	-23808(%ebp), %eax
	addl	%eax, -23804(%ebp)
	jmp	.L212
.L211:
	.loc 1 1074 0
	cmpl	$2, 28(%ebp)
	jne	.L213
	.loc 1 1075 0
	movl	-23812(%ebp), %eax
	addl	%eax, -23804(%ebp)
	jmp	.L212
.L213:
	.loc 1 1077 0
	cmpl	$3, 28(%ebp)
	jne	.L212
	.loc 1 1078 0
	movl	-23812(%ebp), %eax
	movl	-23808(%ebp), %edx
	leal	(%edx,%eax), %eax
	addl	%eax, -23804(%ebp)
.L212:
	.loc 1 1080 0
	fildl	-23808(%ebp)
	fmuls	32(%ebp)
	fldl	.LC52
	fmulp	%st, %st(1)
	fldl	.LC17
	faddp	%st, %st(1)
	fldcw	-26824(%ebp)
	fistpl	-23896(%ebp)
	fldcw	-26822(%ebp)
	.loc 1 1081 0
	fildl	-23812(%ebp)
	fmuls	32(%ebp)
	fldl	.LC52
	fmulp	%st, %st(1)
	fldl	.LC17
	faddp	%st, %st(1)
	fldcw	-26824(%ebp)
	fistpl	-23900(%ebp)
	fldcw	-26822(%ebp)
	.loc 1 1082 0
	fildl	-23820(%ebp)
	fmuls	32(%ebp)
	fldl	.LC52
	fmulp	%st, %st(1)
	fldl	.LC17
	faddp	%st, %st(1)
	fldcw	-26824(%ebp)
	fistpl	-23904(%ebp)
	fldcw	-26822(%ebp)
	.loc 1 1083 0
	fildl	-23824(%ebp)
	fmuls	32(%ebp)
	fldl	.LC52
	fmulp	%st, %st(1)
	fldl	.LC17
	faddp	%st, %st(1)
	fldcw	-26824(%ebp)
	fistpl	-23908(%ebp)
	fldcw	-26822(%ebp)
	.loc 1 1084 0
	fldl	-23936(%ebp)
	fldl	.LC28
	fmulp	%st, %st(1)
	flds	32(%ebp)
	fmulp	%st, %st(1)
	fldl	.LC17
	faddp	%st, %st(1)
	fldcw	-26824(%ebp)
	fistpl	-23912(%ebp)
	fldcw	-26822(%ebp)
	.loc 1 1085 0
	movl	-23900(%ebp), %eax
	movl	-23896(%ebp), %edx
	leal	(%edx,%eax), %eax
	addl	-23912(%ebp), %eax
	addl	-23904(%ebp), %eax
	addl	-23908(%ebp), %eax
	movl	%eax, -23916(%ebp)
	.loc 1 1086 0
	fildl	-23804(%ebp)
	fld	%st(0)
	faddp	%st, %st(1)
	fildl	-23916(%ebp)
	fdivrp	%st, %st(1)
	fldcw	-26824(%ebp)
	fistpl	-26828(%ebp)
	fldcw	-26822(%ebp)
	movl	-26828(%ebp), %eax
	addl	%eax, -23804(%ebp)
	.loc 1 1087 0
	flds	-23816(%ebp)
	flds	-23816(%ebp)
	fld	%st(0)
	faddp	%st, %st(1)
	fildl	-23916(%ebp)
	fdivrp	%st, %st(1)
	faddp	%st, %st(1)
	fstps	-23816(%ebp)
	.loc 1 1092 0
	movl	-26812(%ebp), %eax
	movl	(%eax), %eax
	cmpl	$2, %eax
	jne	.L214
	.loc 1 1093 0
	movl	-26812(%ebp), %eax
	movl	28(%eax), %eax
	cmpl	$2, %eax
	jne	.L215
	.loc 1 1094 0
	addl	$1, -23800(%ebp)
	.loc 1 1095 0
	movl	-26768(%ebp), %eax
	movl	25192(%eax), %edx
	movl	-26768(%ebp), %ecx
	movl	%edx, %eax
	addl	%eax, %eax
	addl	%edx, %eax
	sall	$2, %eax
	leal	(%ecx,%eax), %eax
	leal	25196(%eax), %edx
	movl	-23800(%ebp), %eax
	movl	%eax, (%edx)
	.loc 1 1096 0
	movl	-26768(%ebp), %eax
	movl	25192(%eax), %edx
	movl	-26768(%ebp), %ecx
	movl	%edx, %eax
	addl	%eax, %eax
	addl	%edx, %eax
	sall	$2, %eax
	leal	(%ecx,%eax), %eax
	addl	$25204, %eax
	movl	$-1, (%eax)
	.loc 1 1097 0
	movl	-26768(%ebp), %eax
	movl	25192(%eax), %edx
	movl	-26768(%ebp), %ecx
	movl	%edx, %eax
	addl	%eax, %eax
	addl	%edx, %eax
	sall	$2, %eax
	leal	(%ecx,%eax), %eax
	addl	$25200, %eax
	movl	$0, (%eax)
	.loc 1 1098 0
	movl	-26768(%ebp), %eax
	movl	25192(%eax), %eax
	leal	1(%eax), %edx
	movl	-26768(%ebp), %eax
	movl	%edx, 25192(%eax)
.L215:
	.loc 1 1101 0
	movl	-26812(%ebp), %eax
	movl	24(%eax), %edx
	movl	-26812(%ebp), %eax
	movl	16(%eax), %eax
	movl	-23800(%ebp), %ecx
	movl	%ecx, 32(%esp)
	movl	36(%ebp), %ecx
	movl	%ecx, 28(%esp)
	movl	-23904(%ebp), %ecx
	movl	%ecx, 24(%esp)
	leal	-23992(%ebp), %ecx
	movl	%ecx, 20(%esp)
	movl	%edx, 16(%esp)
	movl	%eax, 12(%esp)
	movl	-23796(%ebp), %eax
	movl	%eax, 8(%esp)
	movl	-26768(%ebp), %eax
	movl	%eax, 4(%esp)
	leal	-23788(%ebp), %eax
	movl	%eax, (%esp)
	call	_Z11uplineMacroP9tmpnRobotP11tmpnPathDefPiffP10tmpnVectoriii
	.loc 1 1102 0
	movl	-26812(%ebp), %eax
	movl	28(%eax), %eax
	cmpl	$1, %eax
	jne	.L247
	.loc 1 1103 0
	addl	$1, -23800(%ebp)
	.loc 1 1104 0
	movl	-26768(%ebp), %eax
	movl	25192(%eax), %edx
	movl	-26768(%ebp), %ecx
	movl	%edx, %eax
	addl	%eax, %eax
	addl	%edx, %eax
	sall	$2, %eax
	leal	(%ecx,%eax), %eax
	leal	25196(%eax), %edx
	movl	-23800(%ebp), %eax
	movl	%eax, (%edx)
	.loc 1 1105 0
	movl	-26768(%ebp), %eax
	movl	25192(%eax), %edx
	movl	-26768(%ebp), %ecx
	movl	%edx, %eax
	addl	%eax, %eax
	addl	%edx, %eax
	sall	$2, %eax
	leal	(%ecx,%eax), %eax
	addl	$25204, %eax
	movl	$-1, (%eax)
	.loc 1 1106 0
	movl	-26768(%ebp), %eax
	movl	25192(%eax), %edx
	movl	-26768(%ebp), %ecx
	movl	%edx, %eax
	addl	%eax, %eax
	addl	%edx, %eax
	sall	$2, %eax
	leal	(%ecx,%eax), %eax
	addl	$25200, %eax
	movl	$0, (%eax)
	.loc 1 1107 0
	movl	-26768(%ebp), %eax
	movl	25192(%eax), %eax
	leal	1(%eax), %edx
	movl	-26768(%ebp), %eax
	movl	%edx, 25192(%eax)
	jmp	.L217
.L214:
	.loc 1 1110 0
	movl	-26812(%ebp), %eax
	movl	(%eax), %eax
	cmpl	$4, %eax
	jne	.L217
	.loc 1 1111 0
	movl	-26812(%ebp), %eax
	movl	28(%eax), %eax
	cmpl	$2, %eax
	jne	.L218
	.loc 1 1112 0
	addl	$1, -23800(%ebp)
	.loc 1 1113 0
	movl	-26768(%ebp), %eax
	movl	25192(%eax), %edx
	movl	-26768(%ebp), %ecx
	movl	%edx, %eax
	addl	%eax, %eax
	addl	%edx, %eax
	sall	$2, %eax
	leal	(%ecx,%eax), %eax
	leal	25196(%eax), %edx
	movl	-23800(%ebp), %eax
	movl	%eax, (%edx)
	.loc 1 1114 0
	movl	-26768(%ebp), %eax
	movl	25192(%eax), %edx
	movl	-26768(%ebp), %ecx
	movl	%edx, %eax
	addl	%eax, %eax
	addl	%edx, %eax
	sall	$2, %eax
	leal	(%ecx,%eax), %eax
	addl	$25204, %eax
	movl	$-1, (%eax)
	.loc 1 1115 0
	movl	-26768(%ebp), %eax
	movl	25192(%eax), %edx
	movl	-26768(%ebp), %ecx
	movl	%edx, %eax
	addl	%eax, %eax
	addl	%edx, %eax
	sall	$2, %eax
	leal	(%ecx,%eax), %eax
	addl	$25200, %eax
	movl	$0, (%eax)
	.loc 1 1116 0
	movl	-26768(%ebp), %eax
	movl	25192(%eax), %eax
	leal	1(%eax), %edx
	movl	-26768(%ebp), %eax
	movl	%edx, 25192(%eax)
.L218:
	.loc 1 1119 0
	movl	-26812(%ebp), %eax
	movl	24(%eax), %edx
	movl	-26812(%ebp), %eax
	movl	16(%eax), %eax
	movl	-23800(%ebp), %ecx
	movl	%ecx, 32(%esp)
	movl	36(%ebp), %ecx
	movl	%ecx, 28(%esp)
	movl	-23904(%ebp), %ecx
	movl	%ecx, 24(%esp)
	leal	-23992(%ebp), %ecx
	movl	%ecx, 20(%esp)
	movl	%edx, 16(%esp)
	movl	%eax, 12(%esp)
	movl	-23796(%ebp), %eax
	movl	%eax, 8(%esp)
	movl	-26768(%ebp), %eax
	movl	%eax, 4(%esp)
	leal	-23788(%ebp), %eax
	movl	%eax, (%esp)
	call	_Z15fastUplineMacroP9tmpnRobotP11tmpnPathDefPiffP10tmpnVectoriii
	.loc 1 1120 0
	movl	-26812(%ebp), %eax
	movl	28(%eax), %eax
	cmpl	$1, %eax
	jne	.L217
	.loc 1 1121 0
	addl	$1, -23800(%ebp)
	.loc 1 1122 0
	movl	-26768(%ebp), %eax
	movl	25192(%eax), %edx
	movl	-26768(%ebp), %ecx
	movl	%edx, %eax
	addl	%eax, %eax
	addl	%edx, %eax
	sall	$2, %eax
	leal	(%ecx,%eax), %eax
	leal	25196(%eax), %edx
	movl	-23800(%ebp), %eax
	movl	%eax, (%edx)
	.loc 1 1123 0
	movl	-26768(%ebp), %eax
	movl	25192(%eax), %edx
	movl	-26768(%ebp), %ecx
	movl	%edx, %eax
	addl	%eax, %eax
	addl	%edx, %eax
	sall	$2, %eax
	leal	(%ecx,%eax), %eax
	addl	$25204, %eax
	movl	$-1, (%eax)
	.loc 1 1124 0
	movl	-26768(%ebp), %eax
	movl	25192(%eax), %edx
	movl	-26768(%ebp), %ecx
	movl	%edx, %eax
	addl	%eax, %eax
	addl	%edx, %eax
	sall	$2, %eax
	leal	(%ecx,%eax), %eax
	addl	$25200, %eax
	movl	$0, (%eax)
	.loc 1 1125 0
	movl	-26768(%ebp), %eax
	movl	25192(%eax), %eax
	leal	1(%eax), %edx
	movl	-26768(%ebp), %eax
	movl	%edx, 25192(%eax)
	jmp	.L217
.L247:
	.loc 1 1107 0
	nop
.L217:
	.loc 1 1129 0
	cmpl	$1, 28(%ebp)
	je	.L219
	cmpl	$3, 28(%ebp)
	jne	.L220
.L219:
	.loc 1 1130 0
	cmpl	$1, 92(%ebp)
	jne	.L221
	.loc 1 1131 0
	fildl	-23808(%ebp)
	fldl	.LC52
	fmulp	%st, %st(1)
	fstps	-26820(%ebp)
	flds	-26820(%ebp)
	movl	$0, 52(%esp)
	movl	-23800(%ebp), %eax
	movl	%eax, 48(%esp)
	leal	-23788(%ebp), %eax
	movl	%eax, 44(%esp)
	movl	36(%ebp), %eax
	movl	%eax, 40(%esp)
	movl	-23896(%ebp), %eax
	movl	%eax, 36(%esp)
	fstps	32(%esp)
	leal	-24688(%ebp), %eax
	movl	%eax, 28(%esp)
	leal	-24664(%ebp), %eax
	movl	%eax, 24(%esp)
	leal	-24640(%ebp), %eax
	movl	%eax, 20(%esp)
	leal	-24544(%ebp), %eax
	movl	%eax, 16(%esp)
	leal	-24520(%ebp), %eax
	movl	%eax, 12(%esp)
	leal	-24496(%ebp), %eax
	movl	%eax, 8(%esp)
	movl	-23796(%ebp), %eax
	movl	%eax, 4(%esp)
	movl	-26768(%ebp), %eax
	movl	%eax, (%esp)
	call	blendquintic
	jmp	.L220
.L221:
	.loc 1 1133 0
	fildl	-23808(%ebp)
	fldl	.LC52
	fmulp	%st, %st(1)
	fstps	-26820(%ebp)
	flds	-26820(%ebp)
	movl	$0, 44(%esp)
	movl	-23800(%ebp), %eax
	movl	%eax, 40(%esp)
	leal	-23788(%ebp), %eax
	movl	%eax, 36(%esp)
	movl	36(%ebp), %eax
	movl	%eax, 32(%esp)
	movl	-23896(%ebp), %eax
	movl	%eax, 28(%esp)
	fstps	24(%esp)
	leal	-24664(%ebp), %eax
	movl	%eax, 20(%esp)
	leal	-24640(%ebp), %eax
	movl	%eax, 16(%esp)
	leal	-24520(%ebp), %eax
	movl	%eax, 12(%esp)
	leal	-24496(%ebp), %eax
	movl	%eax, 8(%esp)
	movl	-23796(%ebp), %eax
	movl	%eax, 4(%esp)
	movl	-26768(%ebp), %eax
	movl	%eax, (%esp)
	call	blendcubic
.L220:
.LBB36:
	.loc 1 1140 0
	movl	$0, -23920(%ebp)
	jmp	.L222
.L227:
.LBB37:
	.loc 1 1142 0
	fildl	-23920(%ebp)
	fldl	.LC28
	fmulp	%st, %st(1)
	fldl	-23936(%ebp)
	fmulp	%st, %st(1)
	fildl	-23912(%ebp)
	fdivrp	%st, %st(1)
	fstpl	-23944(%ebp)
	.loc 1 1143 0
	movl	-23920(%ebp), %eax
	cmpl	-23912(%ebp), %eax
	jne	.L223
	.loc 1 1144 0
	cmpl	$2, 28(%ebp)
	je	.L248
	cmpl	$3, 28(%ebp)
	je	.L249
.L225:
	.loc 1 1145 0
	fldl	-23936(%ebp)
	fldl	.LC53
	fmulp	%st, %st(1)
	fstpl	-23944(%ebp)
.L223:
	.loc 1 1147 0
	fldl	-23944(%ebp)
	fstpl	8(%esp)
	movl	$0, 4(%esp)
	leal	-26752(%ebp), %eax
	movl	%eax, (%esp)
	call	_ZN4bane9cubicpolyEid
	fldl	.LC47
	fmulp	%st, %st(1)
	fstps	-26820(%ebp)
	flds	-26820(%ebp)
	fstps	-24784(%ebp)
	.loc 1 1148 0
	fldl	-23944(%ebp)
	fstpl	8(%esp)
	movl	$1, 4(%esp)
	leal	-26752(%ebp), %eax
	movl	%eax, (%esp)
	call	_ZN4bane9cubicpolyEid
	fldl	.LC43
	fmulp	%st, %st(1)
	fldl	.LC42
	fdivrp	%st, %st(1)
	fstps	-26820(%ebp)
	flds	-26820(%ebp)
	fstps	-24780(%ebp)
	.loc 1 1149 0
	fldl	-23944(%ebp)
	fstpl	8(%esp)
	movl	$2, 4(%esp)
	leal	-26752(%ebp), %eax
	movl	%eax, (%esp)
	call	_ZN4bane9cubicpolyEid
	fldl	.LC43
	fmulp	%st, %st(1)
	fldl	.LC42
	fdivrp	%st, %st(1)
	fstps	-26820(%ebp)
	flds	-26820(%ebp)
	fstps	-24776(%ebp)
	.loc 1 1150 0
	fldl	-23944(%ebp)
	fstpl	8(%esp)
	movl	$3, 4(%esp)
	leal	-26752(%ebp), %eax
	movl	%eax, (%esp)
	call	_ZN4bane9cubicpolyEid
	fldl	.LC43
	fmulp	%st, %st(1)
	fldl	.LC42
	fdivrp	%st, %st(1)
	fstps	-26820(%ebp)
	flds	-26820(%ebp)
	fstps	-24772(%ebp)
	.loc 1 1151 0
	fldl	-23944(%ebp)
	fstpl	8(%esp)
	movl	$4, 4(%esp)
	leal	-26752(%ebp), %eax
	movl	%eax, (%esp)
	call	_ZN4bane9cubicpolyEid
	fldl	.LC43
	fmulp	%st, %st(1)
	fldl	.LC42
	fdivrp	%st, %st(1)
	fstps	-26820(%ebp)
	flds	-26820(%ebp)
	fstps	-24768(%ebp)
	.loc 1 1152 0
	movl	$0x00000000, %eax
	movl	%eax, -24764(%ebp)
	.loc 1 1154 0
	movl	-24764(%ebp), %edi
	movl	-24768(%ebp), %esi
	movl	-24772(%ebp), %ebx
	movl	-24776(%ebp), %ecx
	movl	-24780(%ebp), %edx
	movl	-24784(%ebp), %eax
	movl	%eax, -26960(%ebp)
	movl	36(%ebp), %eax
	movl	%eax, -26948(%ebp)
	movl	-26948(%ebp), %eax
	movl	%eax, 28(%esp)
	movl	%edi, 24(%esp)
	movl	%esi, 20(%esp)
	movl	%ebx, 16(%esp)
	movl	%ecx, 12(%esp)
	movl	%edx, 8(%esp)
	movl	-26960(%ebp), %edx
	movl	%edx, 4(%esp)
	leal	-23788(%ebp), %eax
	movl	%eax, (%esp)
	call	tmpnComputeFKlogic
	.loc 1 1155 0
	movl	-23792(%ebp), %edx
	movl	-22472(%ebp), %ecx
	movl	-26768(%ebp), %ebx
	movl	%edx, %eax
	addl	%eax, %eax
	addl	%edx, %eax
	sall	$4, %eax
	leal	(%ebx,%eax), %eax
	addl	$320, %eax
	movl	%ecx, (%eax)
	.loc 1 1156 0
	movl	-23792(%ebp), %edx
	movl	-22468(%ebp), %ecx
	movl	-26768(%ebp), %ebx
	movl	%edx, %eax
	addl	%eax, %eax
	addl	%edx, %eax
	sall	$4, %eax
	leal	(%ebx,%eax), %eax
	addl	$324, %eax
	movl	%ecx, (%eax)
	.loc 1 1157 0
	movl	-23792(%ebp), %edx
	movl	-22464(%ebp), %ecx
	movl	-26768(%ebp), %ebx
	movl	%edx, %eax
	addl	%eax, %eax
	addl	%edx, %eax
	sall	$4, %eax
	leal	(%ebx,%eax), %eax
	addl	$328, %eax
	movl	%ecx, (%eax)
	.loc 1 1158 0
	movl	-23792(%ebp), %edx
	movl	-22460(%ebp), %ecx
	movl	-26768(%ebp), %ebx
	movl	%edx, %eax
	addl	%eax, %eax
	addl	%edx, %eax
	sall	$4, %eax
	leal	(%ebx,%eax), %eax
	addl	$332, %eax
	movl	%ecx, (%eax)
	.loc 1 1159 0
	movl	-23792(%ebp), %edx
	movl	-22456(%ebp), %ecx
	movl	-26768(%ebp), %ebx
	movl	%edx, %eax
	addl	%eax, %eax
	addl	%edx, %eax
	sall	$4, %eax
	leal	(%ebx,%eax), %eax
	addl	$336, %eax
	movl	%ecx, (%eax)
	.loc 1 1160 0
	movl	-23792(%ebp), %edx
	movl	-22452(%ebp), %ecx
	movl	-26768(%ebp), %ebx
	movl	%edx, %eax
	addl	%eax, %eax
	addl	%edx, %eax
	sall	$4, %eax
	leal	(%ebx,%eax), %eax
	addl	$340, %eax
	movl	%ecx, (%eax)
	.loc 1 1161 0
	movl	-23792(%ebp), %edx
	movl	-26768(%ebp), %ecx
	movl	%edx, %eax
	addl	%eax, %eax
	addl	%edx, %eax
	sall	$4, %eax
	leal	(%ecx,%eax), %eax
	leal	308(%eax), %edx
	movl	36(%ebp), %eax
	movl	%eax, (%edx)
	.loc 1 1162 0
	movl	-23792(%ebp), %edx
	fildl	-23800(%ebp)
	movl	-26768(%ebp), %ecx
	movl	%edx, %eax
	addl	%eax, %eax
	addl	%edx, %eax
	sall	$4, %eax
	leal	(%ecx,%eax), %eax
	addl	$316, %eax
	fstps	(%eax)
	.loc 1 1163 0
	movl	-23792(%ebp), %edx
	movl	-26768(%ebp), %ecx
	movl	%edx, %eax
	addl	%eax, %eax
	addl	%edx, %eax
	sall	$4, %eax
	leal	(%ecx,%eax), %eax
	addl	$312, %eax
	movl	$0, (%eax)
	.loc 1 1164 0
	movl	-23792(%ebp), %edx
	movl	-26768(%ebp), %ecx
	movl	%edx, %eax
	addl	%eax, %eax
	addl	%edx, %eax
	sall	$4, %eax
	leal	(%ecx,%eax), %eax
	leal	344(%eax), %edx
	movl	$0x41200000, %eax
	movl	%eax, (%edx)
	.loc 1 1165 0
	movl	-23792(%ebp), %eax
	addl	$1, %eax
	movl	%eax, -23792(%ebp)
.LBE37:
	.loc 1 1140 0
	addl	$1, -23920(%ebp)
.L222:
	movl	-23912(%ebp), %eax
	addl	$1, %eax
	cmpl	-23920(%ebp), %eax
	setg	%al
	testb	%al, %al
	jne	.L227
	jmp	.L226
.L248:
.LBB38:
	.loc 1 1144 0
	nop
	jmp	.L226
.L249:
	nop
.L226:
.LBE38:
.LBE36:
	.loc 1 1171 0
	cmpl	$2, 28(%ebp)
	je	.L228
	cmpl	$3, 28(%ebp)
	jne	.L229
.L228:
.LBB39:
	.loc 1 1172 0
	movl	$0, -23924(%ebp)
	.loc 1 1173 0
	movl	-26816(%ebp), %eax
	movl	(%eax), %eax
	testl	%eax, %eax
	jne	.L230
	movl	$1, -23924(%ebp)
.L230:
	.loc 1 1174 0
	cmpl	$1, 92(%ebp)
	jne	.L231
	.loc 1 1175 0
	fildl	-23812(%ebp)
	fldl	.LC52
	fmulp	%st, %st(1)
	fstps	-26820(%ebp)
	flds	-26820(%ebp)
	movl	-23924(%ebp), %eax
	movl	%eax, 52(%esp)
	movl	-23800(%ebp), %eax
	movl	%eax, 48(%esp)
	leal	-23788(%ebp), %eax
	movl	%eax, 44(%esp)
	movl	40(%ebp), %eax
	movl	%eax, 40(%esp)
	movl	-23900(%ebp), %eax
	movl	%eax, 36(%esp)
	fstps	32(%esp)
	leal	-24616(%ebp), %eax
	movl	%eax, 28(%esp)
	leal	-24592(%ebp), %eax
	movl	%eax, 24(%esp)
	leal	-24568(%ebp), %eax
	movl	%eax, 20(%esp)
	leal	-24760(%ebp), %eax
	movl	%eax, 16(%esp)
	leal	-24736(%ebp), %eax
	movl	%eax, 12(%esp)
	leal	-24712(%ebp), %eax
	movl	%eax, 8(%esp)
	movl	-23796(%ebp), %eax
	movl	%eax, 4(%esp)
	movl	-26768(%ebp), %eax
	movl	%eax, (%esp)
	call	blendquintic
	jmp	.L229
.L231:
	.loc 1 1177 0
	fildl	-23812(%ebp)
	fldl	.LC52
	fmulp	%st, %st(1)
	fstps	-26820(%ebp)
	flds	-26820(%ebp)
	movl	-23924(%ebp), %eax
	movl	%eax, 44(%esp)
	movl	-23800(%ebp), %eax
	movl	%eax, 40(%esp)
	leal	-23788(%ebp), %eax
	movl	%eax, 36(%esp)
	movl	40(%ebp), %eax
	movl	%eax, 32(%esp)
	movl	-23900(%ebp), %eax
	movl	%eax, 28(%esp)
	fstps	24(%esp)
	leal	-24592(%ebp), %eax
	movl	%eax, 20(%esp)
	leal	-24568(%ebp), %eax
	movl	%eax, 16(%esp)
	leal	-24736(%ebp), %eax
	movl	%eax, 12(%esp)
	leal	-24712(%ebp), %eax
	movl	%eax, 8(%esp)
	movl	-23796(%ebp), %eax
	movl	%eax, 4(%esp)
	movl	-26768(%ebp), %eax
	movl	%eax, (%esp)
	call	blendcubic
.L229:
.LBE39:
	.loc 1 1181 0
	movl	-26816(%ebp), %eax
	movl	(%eax), %eax
	cmpl	$1, %eax
	jne	.L232
	.loc 1 1182 0
	movl	-26816(%ebp), %eax
	movl	28(%eax), %eax
	cmpl	$2, %eax
	jne	.L233
	.loc 1 1183 0
	addl	$1, -23800(%ebp)
	.loc 1 1184 0
	movl	-26768(%ebp), %eax
	movl	25192(%eax), %edx
	movl	-26768(%ebp), %ecx
	movl	%edx, %eax
	addl	%eax, %eax
	addl	%edx, %eax
	sall	$2, %eax
	leal	(%ecx,%eax), %eax
	leal	25196(%eax), %edx
	movl	-23800(%ebp), %eax
	movl	%eax, (%edx)
	.loc 1 1185 0
	movl	-26768(%ebp), %eax
	movl	25192(%eax), %edx
	movl	-26768(%ebp), %ecx
	movl	%edx, %eax
	addl	%eax, %eax
	addl	%edx, %eax
	sall	$2, %eax
	leal	(%ecx,%eax), %eax
	addl	$25204, %eax
	movl	$-1, (%eax)
	.loc 1 1186 0
	movl	-26768(%ebp), %eax
	movl	25192(%eax), %edx
	movl	-26768(%ebp), %ecx
	movl	%edx, %eax
	addl	%eax, %eax
	addl	%edx, %eax
	sall	$2, %eax
	leal	(%ecx,%eax), %eax
	addl	$25200, %eax
	movl	$0, (%eax)
	.loc 1 1187 0
	movl	-26768(%ebp), %eax
	movl	25192(%eax), %eax
	leal	1(%eax), %edx
	movl	-26768(%ebp), %eax
	movl	%edx, 25192(%eax)
.L233:
	.loc 1 1189 0
	movl	-26816(%ebp), %eax
	movl	24(%eax), %ecx
	movl	%ecx, -26832(%ebp)
	movl	-26816(%ebp), %eax
	movl	20(%eax), %edi
	movl	-26816(%ebp), %eax
	movl	16(%eax), %esi
	movl	-26816(%ebp), %eax
	movl	12(%eax), %ebx
	movl	-26816(%ebp), %eax
	movl	8(%eax), %ecx
	movl	-26816(%ebp), %eax
	movl	4(%eax), %edx
	movl	-23800(%ebp), %eax
	movl	%eax, 48(%esp)
	movl	40(%ebp), %eax
	movl	%eax, 44(%esp)
	movl	-23908(%ebp), %eax
	movl	%eax, 40(%esp)
	leal	-23968(%ebp), %eax
	movl	%eax, 36(%esp)
	movl	-26832(%ebp), %eax
	movl	%eax, 32(%esp)
	movl	%edi, 28(%esp)
	movl	%esi, 24(%esp)
	movl	%ebx, 20(%esp)
	movl	%ecx, 16(%esp)
	movl	%edx, 12(%esp)
	movl	-23796(%ebp), %eax
	movl	%eax, 8(%esp)
	movl	-26768(%ebp), %eax
	movl	%eax, 4(%esp)
	leal	-23788(%ebp), %eax
	movl	%eax, (%esp)
	call	_Z11spiralMacroP9tmpnRobotP11tmpnPathDefPiffffffP10tmpnVectoriii
	jmp	.L234
.L232:
	.loc 1 1191 0
	movl	-26816(%ebp), %eax
	movl	(%eax), %eax
	cmpl	$3, %eax
	jne	.L235
	.loc 1 1192 0
	movl	-26816(%ebp), %eax
	movl	28(%eax), %eax
	cmpl	$2, %eax
	jne	.L236
	.loc 1 1193 0
	addl	$1, -23800(%ebp)
	.loc 1 1194 0
	movl	-26768(%ebp), %eax
	movl	25192(%eax), %edx
	movl	-26768(%ebp), %ecx
	movl	%edx, %eax
	addl	%eax, %eax
	addl	%edx, %eax
	sall	$2, %eax
	leal	(%ecx,%eax), %eax
	leal	25196(%eax), %edx
	movl	-23800(%ebp), %eax
	movl	%eax, (%edx)
	.loc 1 1195 0
	movl	-26768(%ebp), %eax
	movl	25192(%eax), %edx
	movl	-26768(%ebp), %ecx
	movl	%edx, %eax
	addl	%eax, %eax
	addl	%edx, %eax
	sall	$2, %eax
	leal	(%ecx,%eax), %eax
	addl	$25204, %eax
	movl	$-1, (%eax)
	.loc 1 1196 0
	movl	-26768(%ebp), %eax
	movl	25192(%eax), %edx
	movl	-26768(%ebp), %ecx
	movl	%edx, %eax
	addl	%eax, %eax
	addl	%edx, %eax
	sall	$2, %eax
	leal	(%ecx,%eax), %eax
	addl	$25200, %eax
	movl	$0, (%eax)
	.loc 1 1197 0
	movl	-26768(%ebp), %eax
	movl	25192(%eax), %eax
	leal	1(%eax), %edx
	movl	-26768(%ebp), %eax
	movl	%edx, 25192(%eax)
.L236:
	.loc 1 1199 0
	movl	-26816(%ebp), %eax
	movl	24(%eax), %edx
	movl	-26816(%ebp), %eax
	movl	16(%eax), %eax
	movl	-23800(%ebp), %ecx
	movl	%ecx, 32(%esp)
	movl	40(%ebp), %ecx
	movl	%ecx, 28(%esp)
	movl	-23908(%ebp), %ecx
	movl	%ecx, 24(%esp)
	leal	-23968(%ebp), %ecx
	movl	%ecx, 20(%esp)
	movl	%edx, 16(%esp)
	movl	%eax, 12(%esp)
	movl	-23796(%ebp), %eax
	movl	%eax, 8(%esp)
	movl	-26768(%ebp), %eax
	movl	%eax, 4(%esp)
	leal	-23788(%ebp), %eax
	movl	%eax, (%esp)
	call	_Z13downlineMacroP9tmpnRobotP11tmpnPathDefPiffP10tmpnVectoriii
	jmp	.L234
.L235:
	.loc 1 1201 0
	movl	-26816(%ebp), %eax
	movl	(%eax), %eax
	cmpl	$5, %eax
	jne	.L234
	.loc 1 1202 0
	movl	-26816(%ebp), %eax
	movl	28(%eax), %eax
	cmpl	$2, %eax
	jne	.L237
	.loc 1 1203 0
	addl	$1, -23800(%ebp)
	.loc 1 1204 0
	movl	-26768(%ebp), %eax
	movl	25192(%eax), %edx
	movl	-26768(%ebp), %ecx
	movl	%edx, %eax
	addl	%eax, %eax
	addl	%edx, %eax
	sall	$2, %eax
	leal	(%ecx,%eax), %eax
	leal	25196(%eax), %edx
	movl	-23800(%ebp), %eax
	movl	%eax, (%edx)
	.loc 1 1205 0
	movl	-26768(%ebp), %eax
	movl	25192(%eax), %edx
	movl	-26768(%ebp), %ecx
	movl	%edx, %eax
	addl	%eax, %eax
	addl	%edx, %eax
	sall	$2, %eax
	leal	(%ecx,%eax), %eax
	addl	$25204, %eax
	movl	$-1, (%eax)
	.loc 1 1206 0
	movl	-26768(%ebp), %eax
	movl	25192(%eax), %edx
	movl	-26768(%ebp), %ecx
	movl	%edx, %eax
	addl	%eax, %eax
	addl	%edx, %eax
	sall	$2, %eax
	leal	(%ecx,%eax), %eax
	addl	$25200, %eax
	movl	$0, (%eax)
	.loc 1 1207 0
	movl	-26768(%ebp), %eax
	movl	25192(%eax), %eax
	leal	1(%eax), %edx
	movl	-26768(%ebp), %eax
	movl	%edx, 25192(%eax)
.L237:
	.loc 1 1209 0
	movl	-26816(%ebp), %eax
	movl	24(%eax), %edx
	movl	-26816(%ebp), %eax
	movl	16(%eax), %eax
	movl	-23800(%ebp), %ecx
	movl	%ecx, 32(%esp)
	movl	40(%ebp), %ecx
	movl	%ecx, 28(%esp)
	movl	-23908(%ebp), %ecx
	movl	%ecx, 24(%esp)
	leal	-23968(%ebp), %ecx
	movl	%ecx, 20(%esp)
	movl	%edx, 16(%esp)
	movl	%eax, 12(%esp)
	movl	-23796(%ebp), %eax
	movl	%eax, 8(%esp)
	movl	-26768(%ebp), %eax
	movl	%eax, 4(%esp)
	leal	-23788(%ebp), %eax
	movl	%eax, (%esp)
	call	_Z17fastDownlineMacroP9tmpnRobotP11tmpnPathDefPiffP10tmpnVectoriii
.L234:
	.loc 1 1212 0
	movl	-23792(%ebp), %edx
	movl	-23792(%ebp), %eax
	leal	-1(%eax), %ecx
	movl	-26768(%ebp), %ebx
	movl	%ecx, %eax
	addl	%eax, %eax
	addl	%ecx, %eax
	sall	$4, %eax
	leal	(%ebx,%eax), %eax
	addl	$320, %eax
	movl	(%eax), %ecx
	movl	-26768(%ebp), %ebx
	movl	%edx, %eax
	addl	%eax, %eax
	addl	%edx, %eax
	sall	$4, %eax
	leal	(%ebx,%eax), %eax
	addl	$320, %eax
	movl	%ecx, (%eax)
	.loc 1 1213 0
	movl	-23792(%ebp), %edx
	movl	-23792(%ebp), %eax
	leal	-1(%eax), %ecx
	movl	-26768(%ebp), %ebx
	movl	%ecx, %eax
	addl	%eax, %eax
	addl	%ecx, %eax
	sall	$4, %eax
	leal	(%ebx,%eax), %eax
	addl	$324, %eax
	movl	(%eax), %ecx
	movl	-26768(%ebp), %ebx
	movl	%edx, %eax
	addl	%eax, %eax
	addl	%edx, %eax
	sall	$4, %eax
	leal	(%ebx,%eax), %eax
	addl	$324, %eax
	movl	%ecx, (%eax)
	.loc 1 1214 0
	movl	-23792(%ebp), %edx
	movl	-23792(%ebp), %eax
	leal	-1(%eax), %ecx
	movl	-26768(%ebp), %ebx
	movl	%ecx, %eax
	addl	%eax, %eax
	addl	%ecx, %eax
	sall	$4, %eax
	leal	(%ebx,%eax), %eax
	addl	$328, %eax
	movl	(%eax), %ecx
	movl	-26768(%ebp), %ebx
	movl	%edx, %eax
	addl	%eax, %eax
	addl	%edx, %eax
	sall	$4, %eax
	leal	(%ebx,%eax), %eax
	addl	$328, %eax
	movl	%ecx, (%eax)
	.loc 1 1215 0
	movl	-23792(%ebp), %edx
	movl	-23792(%ebp), %eax
	leal	-1(%eax), %ecx
	movl	-26768(%ebp), %ebx
	movl	%ecx, %eax
	addl	%eax, %eax
	addl	%ecx, %eax
	sall	$4, %eax
	leal	(%ebx,%eax), %eax
	addl	$332, %eax
	movl	(%eax), %ecx
	movl	-26768(%ebp), %ebx
	movl	%edx, %eax
	addl	%eax, %eax
	addl	%edx, %eax
	sall	$4, %eax
	leal	(%ebx,%eax), %eax
	addl	$332, %eax
	movl	%ecx, (%eax)
	.loc 1 1216 0
	movl	-23792(%ebp), %edx
	movl	-23792(%ebp), %eax
	leal	-1(%eax), %ecx
	movl	-26768(%ebp), %ebx
	movl	%ecx, %eax
	addl	%eax, %eax
	addl	%ecx, %eax
	sall	$4, %eax
	leal	(%ebx,%eax), %eax
	addl	$336, %eax
	movl	(%eax), %ecx
	movl	-26768(%ebp), %ebx
	movl	%edx, %eax
	addl	%eax, %eax
	addl	%edx, %eax
	sall	$4, %eax
	leal	(%ebx,%eax), %eax
	addl	$336, %eax
	movl	%ecx, (%eax)
	.loc 1 1217 0
	movl	-23792(%ebp), %edx
	movl	-23792(%ebp), %eax
	leal	-1(%eax), %ecx
	movl	-26768(%ebp), %ebx
	movl	%ecx, %eax
	addl	%eax, %eax
	addl	%ecx, %eax
	sall	$4, %eax
	leal	(%ebx,%eax), %eax
	addl	$340, %eax
	movl	(%eax), %ecx
	movl	-26768(%ebp), %ebx
	movl	%edx, %eax
	addl	%eax, %eax
	addl	%edx, %eax
	sall	$4, %eax
	leal	(%ebx,%eax), %eax
	addl	$340, %eax
	movl	%ecx, (%eax)
	.loc 1 1218 0
	movl	-23792(%ebp), %edx
	movl	-23792(%ebp), %eax
	leal	-1(%eax), %ecx
	movl	-26768(%ebp), %ebx
	movl	%ecx, %eax
	addl	%eax, %eax
	addl	%ecx, %eax
	sall	$4, %eax
	leal	(%ebx,%eax), %eax
	addl	$308, %eax
	movl	(%eax), %ecx
	movl	-26768(%ebp), %ebx
	movl	%edx, %eax
	addl	%eax, %eax
	addl	%edx, %eax
	sall	$4, %eax
	leal	(%ebx,%eax), %eax
	addl	$308, %eax
	movl	%ecx, (%eax)
	.loc 1 1219 0
	movl	-23792(%ebp), %edx
	movl	-23792(%ebp), %eax
	leal	-1(%eax), %ecx
	movl	-26768(%ebp), %ebx
	movl	%ecx, %eax
	addl	%eax, %eax
	addl	%ecx, %eax
	sall	$4, %eax
	leal	(%ebx,%eax), %eax
	addl	$316, %eax
	movl	(%eax), %ecx
	movl	-26768(%ebp), %ebx
	movl	%edx, %eax
	addl	%eax, %eax
	addl	%edx, %eax
	sall	$4, %eax
	leal	(%ebx,%eax), %eax
	addl	$316, %eax
	movl	%ecx, (%eax)
	.loc 1 1220 0
	movl	-23792(%ebp), %edx
	movl	-26768(%ebp), %ecx
	movl	%edx, %eax
	addl	%eax, %eax
	addl	%edx, %eax
	sall	$4, %eax
	leal	(%ecx,%eax), %eax
	addl	$312, %eax
	movl	$0, (%eax)
	.loc 1 1221 0
	movl	-23792(%ebp), %edx
	movl	-26768(%ebp), %ecx
	movl	%edx, %eax
	addl	%eax, %eax
	addl	%edx, %eax
	sall	$4, %eax
	leal	(%ecx,%eax), %eax
	leal	344(%eax), %edx
	movl	$0x41200000, %eax
	movl	%eax, (%edx)
	.loc 1 1222 0
	movl	-23792(%ebp), %eax
	addl	$1, %eax
	movl	%eax, -23792(%ebp)
	.loc 1 1225 0
	movl	-26768(%ebp), %eax
	movl	368(%eax), %edx
	movl	-26768(%ebp), %eax
	movl	%edx, 320(%eax)
	.loc 1 1226 0
	movl	-26768(%ebp), %eax
	movl	372(%eax), %edx
	movl	-26768(%ebp), %eax
	movl	%edx, 324(%eax)
	.loc 1 1227 0
	movl	-26768(%ebp), %eax
	movl	376(%eax), %edx
	movl	-26768(%ebp), %eax
	movl	%edx, 328(%eax)
	.loc 1 1228 0
	movl	-26768(%ebp), %eax
	movl	380(%eax), %edx
	movl	-26768(%ebp), %eax
	movl	%edx, 332(%eax)
	.loc 1 1229 0
	movl	-26768(%ebp), %eax
	movl	384(%eax), %edx
	movl	-26768(%ebp), %eax
	movl	%edx, 336(%eax)
	.loc 1 1230 0
	movl	-26768(%ebp), %eax
	movl	388(%eax), %edx
	movl	-26768(%ebp), %eax
	movl	%edx, 340(%eax)
	.loc 1 1231 0
	movl	-26768(%ebp), %eax
	movl	356(%eax), %edx
	movl	-26768(%ebp), %eax
	movl	%edx, 308(%eax)
	.loc 1 1232 0
	movl	-26768(%ebp), %eax
	movl	$0x00000000, %edx
	movl	%edx, 316(%eax)
	.loc 1 1233 0
	movl	-26768(%ebp), %eax
	movl	$0, 312(%eax)
	.loc 1 1234 0
	movl	-26768(%ebp), %eax
	movl	$0x41200000, %edx
	movl	%edx, 344(%eax)
	.loc 1 1237 0
	flds	96(%ebp)
	flds	.LC35
	fxch	%st(1)
	fucompp
	fnstsw	%ax
	sahf
	jp	.L251
	je	.L238
.L251:
.L244:
.LBB40:
	.loc 1 1239 0
	movl	$0, -23928(%ebp)
	jmp	.L240
.L241:
	.loc 1 1241 0
	movl	-23928(%ebp), %edx
	movl	-26768(%ebp), %ecx
	movl	%edx, %eax
	addl	%eax, %eax
	addl	%edx, %eax
	sall	$4, %eax
	leal	(%ecx,%eax), %eax
	leal	332(%eax), %edx
	movl	96(%ebp), %eax
	movl	%eax, (%edx)
	.loc 1 1239 0
	addl	$1, -23928(%ebp)
.L240:
	movl	-23792(%ebp), %eax
	cmpl	%eax, -23928(%ebp)
	setle	%al
	testb	%al, %al
	jne	.L241
.L238:
.LBE40:
	.loc 1 1244 0
	fildl	-23804(%ebp)
	movl	-26768(%ebp), %eax
	fstps	300(%eax)
	.loc 1 1246 0
	movl	-23792(%ebp), %edx
	movl	-26768(%ebp), %eax
	movl	%edx, 268(%eax)
	.loc 1 1248 0
	movl	-26764(%ebp), %eax
	movl	10748(%eax), %edx
	movl	-26768(%ebp), %eax
	movl	%edx, 288(%eax)
	.loc 1 1249 0
	movl	-26764(%ebp), %eax
	movl	10752(%eax), %edx
	movl	-26768(%ebp), %eax
	movl	%edx, 296(%eax)
	.loc 1 1251 0
	movl	-23816(%ebp), %eax
	movl	%eax, -26956(%ebp)
	flds	-26956(%ebp)
.LBE33:
	.loc 1 1252 0
	movl	-28(%ebp), %edx
	xorl	%gs:20, %edx
	je	.L243
	fstp	%st(0)
	call	__stack_chk_fail
.L243:
	addl	$27212, %esp
	popl	%ebx
	popl	%esi
	popl	%edi
	popl	%ebp
	ret
	.cfi_endproc
.LFE28:
	.size	trajopt, .-trajopt
.globl _Z7uniformdd
	.type	_Z7uniformdd, @function
_Z7uniformdd:
.LFB29:
	.loc 1 1255 0
	.cfi_startproc
	.cfi_personality 0x0,__gxx_personality_v0
	pushl	%ebp
.LCFI40:
	.cfi_def_cfa_offset 8
	movl	%esp, %ebp
	.cfi_offset 5, -8
.LCFI41:
	.cfi_def_cfa_register 5
	subl	$40, %esp
	call	mcount
	movl	8(%ebp), %eax
	movl	%eax, -16(%ebp)
	movl	12(%ebp), %eax
	movl	%eax, -12(%ebp)
	movl	16(%ebp), %eax
	movl	%eax, -24(%ebp)
	movl	20(%ebp), %eax
	movl	%eax, -20(%ebp)
.LBB41:
	.loc 1 1257 0
	fldl	-24(%ebp)
	fsubl	-16(%ebp)
	fstpl	-40(%ebp)
	call	rand
	movl	%eax, -28(%ebp)
	fildl	-28(%ebp)
	fldl	-40(%ebp)
	fmulp	%st, %st(1)
	fldl	.LC54
	fdivrp	%st, %st(1)
	faddl	-16(%ebp)
.LBE41:
	.loc 1 1258 0
	leave
	ret
	.cfi_endproc
.LFE29:
	.size	_Z7uniformdd, .-_Z7uniformdd
.globl _Z11randomindexi
	.type	_Z11randomindexi, @function
_Z11randomindexi:
.LFB30:
	.loc 1 1261 0
	.cfi_startproc
	.cfi_personality 0x0,__gxx_personality_v0
	pushl	%ebp
.LCFI42:
	.cfi_def_cfa_offset 8
	movl	%esp, %ebp
	.cfi_offset 5, -8
.LCFI43:
	.cfi_def_cfa_register 5
	subl	$24, %esp
	call	mcount
	.loc 1 1261 0
	.loc 1 1262 0
	fildl	8(%ebp)
	fstpl	-24(%ebp)
	call	rand
	movl	%eax, -12(%ebp)
	fildl	-12(%ebp)
	fldl	-24(%ebp)
	fmulp	%st, %st(1)
	fldl	.LC55
	fdivrp	%st, %st(1)
	fnstcw	-14(%ebp)
	movzwl	-14(%ebp), %eax
	movb	$12, %ah
	movw	%ax, -16(%ebp)
	fldcw	-16(%ebp)
	fistpl	-12(%ebp)
	fldcw	-14(%ebp)
	movl	-12(%ebp), %eax
	.loc 1 1263 0
	leave
	ret
	.cfi_endproc
.LFE30:
	.size	_Z11randomindexi, .-_Z11randomindexi
.globl _Z3VADddddddPdS_
	.type	_Z3VADddddddPdS_, @function
_Z3VADddddddPdS_:
.LFB31:
	.loc 1 1265 0
	.cfi_startproc
	.cfi_personality 0x0,__gxx_personality_v0
	pushl	%ebp
.LCFI44:
	.cfi_def_cfa_offset 8
	movl	%esp, %ebp
	.cfi_offset 5, -8
.LCFI45:
	.cfi_def_cfa_register 5
	subl	$96, %esp
	call	mcount
	movl	8(%ebp), %eax
	movl	%eax, -56(%ebp)
	movl	12(%ebp), %eax
	movl	%eax, -52(%ebp)
	movl	16(%ebp), %eax
	movl	%eax, -64(%ebp)
	movl	20(%ebp), %eax
	movl	%eax, -60(%ebp)
	movl	24(%ebp), %eax
	movl	%eax, -72(%ebp)
	movl	28(%ebp), %eax
	movl	%eax, -68(%ebp)
	movl	32(%ebp), %eax
	movl	%eax, -80(%ebp)
	movl	36(%ebp), %eax
	movl	%eax, -76(%ebp)
	movl	40(%ebp), %eax
	movl	%eax, -88(%ebp)
	movl	44(%ebp), %eax
	movl	%eax, -84(%ebp)
	movl	48(%ebp), %eax
	movl	%eax, -96(%ebp)
	movl	52(%ebp), %eax
	movl	%eax, -92(%ebp)
.LBB42:
	.loc 1 1268 0
	fldl	-56(%ebp)
	fsubl	-64(%ebp)
	fldl	-56(%ebp)
	fsubl	-72(%ebp)
	fmulp	%st, %st(1)
	fldl	-80(%ebp)
	fdivp	%st, %st(1)
	fstpl	-24(%ebp)
	.loc 1 1269 0
	fldl	-64(%ebp)
	fsubl	-56(%ebp)
	fldl	-64(%ebp)
	fsubl	-72(%ebp)
	fmulp	%st, %st(1)
	fldl	-88(%ebp)
	fdivp	%st, %st(1)
	fstpl	-32(%ebp)
	.loc 1 1270 0
	fldl	-72(%ebp)
	fsubl	-56(%ebp)
	fldl	-72(%ebp)
	fsubl	-64(%ebp)
	fmulp	%st, %st(1)
	fldl	-96(%ebp)
	fdivp	%st, %st(1)
	fstpl	-40(%ebp)
	.loc 1 1271 0
	fldl	-24(%ebp)
	faddl	-32(%ebp)
	faddl	-40(%ebp)
	fstpl	-8(%ebp)
	.loc 1 1272 0
	fldl	-56(%ebp)
	faddl	-64(%ebp)
	fmull	-40(%ebp)
	fldl	-56(%ebp)
	faddl	-72(%ebp)
	fmull	-32(%ebp)
	faddp	%st, %st(1)
	fldl	-64(%ebp)
	faddl	-72(%ebp)
	fmull	-24(%ebp)
	faddp	%st, %st(1)
	fchs
	fstpl	-16(%ebp)
	.loc 1 1273 0
	fldl	-8(%ebp)
	fadd	%st(0), %st
	movl	60(%ebp), %eax
	fstpl	(%eax)
	.loc 1 1274 0
	movl	60(%ebp), %eax
	fldl	(%eax)
	fmull	-64(%ebp)
	faddl	-16(%ebp)
	movl	56(%ebp), %eax
	fstpl	(%eax)
.LBE42:
	.loc 1 1275 0
	leave
	ret
	.cfi_endproc
.LFE31:
	.size	_Z3VADddddddPdS_, .-_Z3VADddddddPdS_
	.section	.rodata
	.align 4
.LC56:
	.string	"\n------------------before--------------------------"
	.align 4
.LC57:
	.string	"%0.4f %0.4f %0.4f %0.4f %0.4f %0.4f %0.4f %0.4f %0.4f %0.4f %0.4f %0.4f %0.4f %0.4f %0.4f %0.4f %0.4f %0.4f %0.4f %0.4f %0.4f\n"
.LC63:
	.string	"BINGO!!! %i %0.4f %0.4f\n"
	.align 4
.LC64:
	.string	"\n------------------after--------------------------"
	.text
.globl jerkMinimizer
	.type	jerkMinimizer, @function
jerkMinimizer:
.LFB32:
	.loc 1 1278 0
	.cfi_startproc
	.cfi_personality 0x0,__gxx_personality_v0
	pushl	%ebp
.LCFI46:
	.cfi_def_cfa_offset 8
	movl	%esp, %ebp
	.cfi_offset 5, -8
.LCFI47:
	.cfi_def_cfa_register 5
	pushl	%edi
	pushl	%esi
	pushl	%ebx
	subl	$160860, %esp
	call	mcount
	.loc 1 1278 0
.LBB43:
	.loc 1 1279 0
	movl	$0, (%esp)
	.cfi_offset 3, -20
	.cfi_offset 6, -16
	.cfi_offset 7, -12
	call	time
	movl	%eax, (%esp)
	call	srand
	.loc 1 1280 0
	movl	$.LC56, (%esp)
	call	puts
	.loc 1 1281 0
	movl	$0, -28(%ebp)
	movl	$0, -32(%ebp)
	.loc 1 1282 0
	movl	12(%ebp), %eax
	flds	300(%eax)
	movl	12(%ebp), %eax
	movl	268(%eax), %eax
	movl	%eax, -160448(%ebp)
	fildl	-160448(%ebp)
	fldl	.LC47
	fmulp	%st, %st(1)
	fdivrp	%st, %st(1)
	fstps	-36(%ebp)
	.loc 1 1288 0
	fldz
	fstpl	-80432(%ebp)
	.loc 1 1289 0
	fldz
	fstpl	-80424(%ebp)
	.loc 1 1290 0
	fldz
	fstpl	-80416(%ebp)
	.loc 1 1291 0
	fldz
	fstpl	-80408(%ebp)
	.loc 1 1292 0
	fldz
	fstpl	-80400(%ebp)
	.loc 1 1293 0
	movl	12(%ebp), %eax
	movl	268(%eax), %eax
	leal	-1(%eax), %edx
	movl	%edx, %eax
	sall	$2, %eax
	addl	%edx, %eax
	sall	$3, %eax
	leal	-24(%ebp), %edx
	leal	(%edx,%eax), %eax
	subl	$80408, %eax
	fldz
	fstpl	(%eax)
	.loc 1 1294 0
	movl	12(%ebp), %eax
	movl	268(%eax), %eax
	leal	-1(%eax), %edx
	movl	%edx, %eax
	sall	$2, %eax
	addl	%edx, %eax
	sall	$3, %eax
	leal	-24(%ebp), %edx
	leal	(%edx,%eax), %eax
	subl	$80408, %eax
	fldz
	fstpl	8(%eax)
	.loc 1 1295 0
	movl	12(%ebp), %eax
	movl	268(%eax), %eax
	leal	-1(%eax), %edx
	movl	%edx, %eax
	sall	$2, %eax
	addl	%edx, %eax
	sall	$3, %eax
	leal	-24(%ebp), %edx
	leal	(%edx,%eax), %eax
	subl	$80392, %eax
	fldz
	fstpl	(%eax)
	.loc 1 1296 0
	movl	12(%ebp), %eax
	movl	268(%eax), %eax
	leal	-1(%eax), %edx
	movl	%edx, %eax
	sall	$2, %eax
	addl	%edx, %eax
	sall	$3, %eax
	leal	-24(%ebp), %edx
	leal	(%edx,%eax), %eax
	subl	$80392, %eax
	fldz
	fstpl	8(%eax)
	.loc 1 1297 0
	movl	12(%ebp), %eax
	movl	268(%eax), %eax
	leal	-1(%eax), %edx
	movl	%edx, %eax
	sall	$2, %eax
	addl	%edx, %eax
	sall	$3, %eax
	leal	-24(%ebp), %edx
	leal	(%edx,%eax), %eax
	subl	$80376, %eax
	fldz
	fstpl	(%eax)
	.loc 1 1298 0
	movl	$0, -28(%ebp)
	jmp	.L259
.L260:
	.loc 1 1300 0
	movl	-28(%ebp), %edx
	movl	12(%ebp), %ecx
	movl	%edx, %eax
	addl	%eax, %eax
	addl	%edx, %eax
	sall	$4, %eax
	leal	(%ecx,%eax), %eax
	addl	$340, %eax
	movl	(%eax), %edx
	movl	%edx, -160672(%ebp)
	movl	-28(%ebp), %edx
	movl	12(%ebp), %ecx
	movl	%edx, %eax
	addl	%eax, %eax
	addl	%edx, %eax
	sall	$4, %eax
	leal	(%ecx,%eax), %eax
	addl	$336, %eax
	movl	(%eax), %edx
	movl	%edx, -160668(%ebp)
	movl	-28(%ebp), %edx
	movl	12(%ebp), %ecx
	movl	%edx, %eax
	addl	%eax, %eax
	addl	%edx, %eax
	sall	$4, %eax
	leal	(%ecx,%eax), %eax
	addl	$332, %eax
	movl	(%eax), %edi
	movl	-28(%ebp), %edx
	movl	12(%ebp), %ecx
	movl	%edx, %eax
	addl	%eax, %eax
	addl	%edx, %eax
	sall	$4, %eax
	leal	(%ecx,%eax), %eax
	addl	$328, %eax
	movl	(%eax), %esi
	movl	-28(%ebp), %edx
	movl	12(%ebp), %ecx
	movl	%edx, %eax
	addl	%eax, %eax
	addl	%edx, %eax
	sall	$4, %eax
	leal	(%ecx,%eax), %eax
	addl	$324, %eax
	movl	(%eax), %ebx
	movl	-28(%ebp), %edx
	movl	12(%ebp), %ecx
	movl	%edx, %eax
	addl	%eax, %eax
	addl	%edx, %eax
	sall	$4, %eax
	leal	(%ecx,%eax), %eax
	addl	$320, %eax
	movl	(%eax), %eax
	movl	16(%ebp), %edx
	movl	%edx, 28(%esp)
	movl	-160672(%ebp), %edx
	movl	%edx, 24(%esp)
	movl	-160668(%ebp), %edx
	movl	%edx, 20(%esp)
	movl	%edi, 16(%esp)
	movl	%esi, 12(%esp)
	movl	%ebx, 8(%esp)
	movl	%eax, 4(%esp)
	movl	8(%ebp), %eax
	movl	%eax, (%esp)
	call	tmpnComputeIK
	.loc 1 1301 0
	movl	-28(%ebp), %edx
	movl	8(%ebp), %eax
	flds	2284(%eax)
	movl	%edx, %eax
	sall	$2, %eax
	addl	%edx, %eax
	sall	$3, %eax
	leal	-24(%ebp), %edx
	leal	(%edx,%eax), %eax
	subl	$40408, %eax
	fstpl	(%eax)
	.loc 1 1302 0
	movl	-28(%ebp), %edx
	movl	8(%ebp), %eax
	flds	2288(%eax)
	movl	%edx, %eax
	sall	$2, %eax
	addl	%edx, %eax
	sall	$3, %eax
	leal	-24(%ebp), %edx
	leal	(%edx,%eax), %eax
	subl	$40408, %eax
	fstpl	8(%eax)
	.loc 1 1303 0
	movl	-28(%ebp), %edx
	movl	8(%ebp), %eax
	flds	2292(%eax)
	movl	%edx, %eax
	sall	$2, %eax
	addl	%edx, %eax
	sall	$3, %eax
	leal	-24(%ebp), %edx
	leal	(%edx,%eax), %eax
	subl	$40392, %eax
	fstpl	(%eax)
	.loc 1 1304 0
	movl	-28(%ebp), %edx
	movl	8(%ebp), %eax
	flds	2296(%eax)
	movl	%edx, %eax
	sall	$2, %eax
	addl	%edx, %eax
	sall	$3, %eax
	leal	-24(%ebp), %edx
	leal	(%edx,%eax), %eax
	subl	$40392, %eax
	fstpl	8(%eax)
	.loc 1 1305 0
	movl	-28(%ebp), %edx
	movl	8(%ebp), %eax
	flds	2300(%eax)
	movl	%edx, %eax
	sall	$2, %eax
	addl	%edx, %eax
	sall	$3, %eax
	leal	-24(%ebp), %edx
	leal	(%edx,%eax), %eax
	subl	$40376, %eax
	fstpl	(%eax)
	.loc 1 1298 0
	addl	$1, -28(%ebp)
.L259:
	movl	12(%ebp), %eax
	movl	268(%eax), %eax
	cmpl	-28(%ebp), %eax
	setg	%al
	testb	%al, %al
	jne	.L260
	.loc 1 1307 0
	movl	$1, -28(%ebp)
	jmp	.L261
.L264:
	.loc 1 1309 0
	movl	$0, -32(%ebp)
	jmp	.L262
.L263:
	.loc 1 1311 0
	movl	-28(%ebp), %edx
	movl	-32(%ebp), %ebx
	leal	-80432(%ebp), %ecx
	movl	%edx, %eax
	sall	$2, %eax
	addl	%edx, %eax
	addl	%ebx, %eax
	sall	$3, %eax
	addl	%eax, %ecx
	movl	-28(%ebp), %eax
	leal	1(%eax), %edx
	movl	-32(%ebp), %ebx
	movl	%edx, %eax
	sall	$2, %eax
	addl	%edx, %eax
	addl	%ebx, %eax
	fldl	-40432(%ebp,%eax,8)
	movl	-28(%ebp), %edx
	movl	-32(%ebp), %ebx
	movl	%edx, %eax
	sall	$2, %eax
	addl	%edx, %eax
	addl	%ebx, %eax
	fldl	-40432(%ebp,%eax,8)
	movl	-28(%ebp), %eax
	leal	-1(%eax), %edx
	movl	-32(%ebp), %ebx
	movl	%edx, %eax
	sall	$2, %eax
	addl	%edx, %eax
	addl	%ebx, %eax
	fldl	-40432(%ebp,%eax,8)
	movl	-28(%ebp), %eax
	addl	$1, %eax
	movl	%eax, -160448(%ebp)
	fildl	-160448(%ebp)
	fmuls	-36(%ebp)
	fildl	-28(%ebp)
	fmuls	-36(%ebp)
	movl	-28(%ebp), %eax
	subl	$1, %eax
	movl	%eax, -160448(%ebp)
	fildl	-160448(%ebp)
	fmuls	-36(%ebp)
	fxch	%st(5)
	leal	-72(%ebp), %eax
	movl	%eax, 52(%esp)
	movl	%ecx, 48(%esp)
	fstpl	40(%esp)
	fxch	%st(3)
	fstpl	32(%esp)
	fxch	%st(1)
	fstpl	24(%esp)
	fstpl	16(%esp)
	fstpl	8(%esp)
	fstpl	(%esp)
	call	_Z3VADddddddPdS_
	.loc 1 1309 0
	addl	$1, -32(%ebp)
.L262:
	cmpl	$4, -32(%ebp)
	setle	%al
	testb	%al, %al
	jne	.L263
	.loc 1 1307 0
	addl	$1, -28(%ebp)
.L261:
	movl	12(%ebp), %eax
	movl	268(%eax), %eax
	subl	$1, %eax
	cmpl	-28(%ebp), %eax
	setg	%al
	testb	%al, %al
	jne	.L264
	.loc 1 1314 0
	fldz
	fstpl	-120432(%ebp)
	.loc 1 1315 0
	fldz
	fstpl	-120424(%ebp)
	.loc 1 1316 0
	fldz
	fstpl	-120416(%ebp)
	.loc 1 1317 0
	fldz
	fstpl	-120408(%ebp)
	.loc 1 1318 0
	fldz
	fstpl	-120400(%ebp)
	.loc 1 1319 0
	movl	12(%ebp), %eax
	movl	268(%eax), %eax
	leal	-1(%eax), %edx
	movl	%edx, %eax
	sall	$2, %eax
	addl	%edx, %eax
	sall	$3, %eax
	leal	-24(%ebp), %edx
	leal	(%edx,%eax), %eax
	subl	$120408, %eax
	fldz
	fstpl	(%eax)
	.loc 1 1320 0
	movl	12(%ebp), %eax
	movl	268(%eax), %eax
	leal	-1(%eax), %edx
	movl	%edx, %eax
	sall	$2, %eax
	addl	%edx, %eax
	sall	$3, %eax
	leal	-24(%ebp), %edx
	leal	(%edx,%eax), %eax
	subl	$120408, %eax
	fldz
	fstpl	8(%eax)
	.loc 1 1321 0
	movl	12(%ebp), %eax
	movl	268(%eax), %eax
	leal	-1(%eax), %edx
	movl	%edx, %eax
	sall	$2, %eax
	addl	%edx, %eax
	sall	$3, %eax
	leal	-24(%ebp), %edx
	leal	(%edx,%eax), %eax
	subl	$120392, %eax
	fldz
	fstpl	(%eax)
	.loc 1 1322 0
	movl	12(%ebp), %eax
	movl	268(%eax), %eax
	leal	-1(%eax), %edx
	movl	%edx, %eax
	sall	$2, %eax
	addl	%edx, %eax
	sall	$3, %eax
	leal	-24(%ebp), %edx
	leal	(%edx,%eax), %eax
	subl	$120392, %eax
	fldz
	fstpl	8(%eax)
	.loc 1 1323 0
	movl	12(%ebp), %eax
	movl	268(%eax), %eax
	leal	-1(%eax), %edx
	movl	%edx, %eax
	sall	$2, %eax
	addl	%edx, %eax
	sall	$3, %eax
	leal	-24(%ebp), %edx
	leal	(%edx,%eax), %eax
	subl	$120376, %eax
	fldz
	fstpl	(%eax)
	.loc 1 1324 0
	movl	$1, -28(%ebp)
	jmp	.L265
.L268:
	.loc 1 1326 0
	movl	$0, -32(%ebp)
	jmp	.L266
.L267:
	.loc 1 1328 0
	movl	-28(%ebp), %edx
	movl	-32(%ebp), %ebx
	leal	-120432(%ebp), %ecx
	movl	%edx, %eax
	sall	$2, %eax
	addl	%edx, %eax
	addl	%ebx, %eax
	sall	$3, %eax
	addl	%eax, %ecx
	movl	-28(%ebp), %eax
	leal	1(%eax), %edx
	movl	-32(%ebp), %ebx
	movl	%edx, %eax
	sall	$2, %eax
	addl	%edx, %eax
	addl	%ebx, %eax
	fldl	-80432(%ebp,%eax,8)
	movl	-28(%ebp), %edx
	movl	-32(%ebp), %ebx
	movl	%edx, %eax
	sall	$2, %eax
	addl	%edx, %eax
	addl	%ebx, %eax
	fldl	-80432(%ebp,%eax,8)
	movl	-28(%ebp), %eax
	leal	-1(%eax), %edx
	movl	-32(%ebp), %ebx
	movl	%edx, %eax
	sall	$2, %eax
	addl	%edx, %eax
	addl	%ebx, %eax
	fldl	-80432(%ebp,%eax,8)
	movl	-28(%ebp), %eax
	addl	$1, %eax
	movl	%eax, -160448(%ebp)
	fildl	-160448(%ebp)
	fmuls	-36(%ebp)
	fildl	-28(%ebp)
	fmuls	-36(%ebp)
	movl	-28(%ebp), %eax
	subl	$1, %eax
	movl	%eax, -160448(%ebp)
	fildl	-160448(%ebp)
	fmuls	-36(%ebp)
	fxch	%st(5)
	leal	-72(%ebp), %eax
	movl	%eax, 52(%esp)
	movl	%ecx, 48(%esp)
	fstpl	40(%esp)
	fxch	%st(3)
	fstpl	32(%esp)
	fxch	%st(1)
	fstpl	24(%esp)
	fstpl	16(%esp)
	fstpl	8(%esp)
	fstpl	(%esp)
	call	_Z3VADddddddPdS_
	.loc 1 1326 0
	addl	$1, -32(%ebp)
.L266:
	cmpl	$4, -32(%ebp)
	setle	%al
	testb	%al, %al
	jne	.L267
	.loc 1 1324 0
	addl	$1, -28(%ebp)
.L265:
	movl	12(%ebp), %eax
	movl	268(%eax), %eax
	subl	$1, %eax
	cmpl	-28(%ebp), %eax
	setg	%al
	testb	%al, %al
	jne	.L268
	.loc 1 1331 0
	fldz
	fstpl	-160432(%ebp)
	.loc 1 1332 0
	fldz
	fstpl	-160424(%ebp)
	.loc 1 1333 0
	fldz
	fstpl	-160416(%ebp)
	.loc 1 1334 0
	fldz
	fstpl	-160408(%ebp)
	.loc 1 1335 0
	fldz
	fstpl	-160400(%ebp)
	.loc 1 1336 0
	movl	12(%ebp), %eax
	movl	268(%eax), %eax
	leal	-1(%eax), %edx
	movl	%edx, %eax
	sall	$2, %eax
	addl	%edx, %eax
	sall	$3, %eax
	leal	-24(%ebp), %edx
	leal	(%edx,%eax), %eax
	subl	$160408, %eax
	fldz
	fstpl	(%eax)
	.loc 1 1337 0
	movl	12(%ebp), %eax
	movl	268(%eax), %eax
	leal	-1(%eax), %edx
	movl	%edx, %eax
	sall	$2, %eax
	addl	%edx, %eax
	sall	$3, %eax
	leal	-24(%ebp), %edx
	leal	(%edx,%eax), %eax
	subl	$160408, %eax
	fldz
	fstpl	8(%eax)
	.loc 1 1338 0
	movl	12(%ebp), %eax
	movl	268(%eax), %eax
	leal	-1(%eax), %edx
	movl	%edx, %eax
	sall	$2, %eax
	addl	%edx, %eax
	sall	$3, %eax
	leal	-24(%ebp), %edx
	leal	(%edx,%eax), %eax
	subl	$160392, %eax
	fldz
	fstpl	(%eax)
	.loc 1 1339 0
	movl	12(%ebp), %eax
	movl	268(%eax), %eax
	leal	-1(%eax), %edx
	movl	%edx, %eax
	sall	$2, %eax
	addl	%edx, %eax
	sall	$3, %eax
	leal	-24(%ebp), %edx
	leal	(%edx,%eax), %eax
	subl	$160392, %eax
	fldz
	fstpl	8(%eax)
	.loc 1 1340 0
	movl	12(%ebp), %eax
	movl	268(%eax), %eax
	leal	-1(%eax), %edx
	movl	%edx, %eax
	sall	$2, %eax
	addl	%edx, %eax
	sall	$3, %eax
	leal	-24(%ebp), %edx
	leal	(%edx,%eax), %eax
	subl	$160376, %eax
	fldz
	fstpl	(%eax)
	.loc 1 1341 0
	movl	$1, -28(%ebp)
	jmp	.L269
.L272:
	.loc 1 1343 0
	movl	$0, -32(%ebp)
	jmp	.L270
.L271:
	.loc 1 1345 0
	movl	-28(%ebp), %edx
	movl	-32(%ebp), %ebx
	leal	-160432(%ebp), %ecx
	movl	%edx, %eax
	sall	$2, %eax
	addl	%edx, %eax
	addl	%ebx, %eax
	sall	$3, %eax
	addl	%eax, %ecx
	movl	-28(%ebp), %eax
	leal	1(%eax), %edx
	movl	-32(%ebp), %ebx
	movl	%edx, %eax
	sall	$2, %eax
	addl	%edx, %eax
	addl	%ebx, %eax
	fldl	-120432(%ebp,%eax,8)
	movl	-28(%ebp), %edx
	movl	-32(%ebp), %ebx
	movl	%edx, %eax
	sall	$2, %eax
	addl	%edx, %eax
	addl	%ebx, %eax
	fldl	-120432(%ebp,%eax,8)
	movl	-28(%ebp), %eax
	leal	-1(%eax), %edx
	movl	-32(%ebp), %ebx
	movl	%edx, %eax
	sall	$2, %eax
	addl	%edx, %eax
	addl	%ebx, %eax
	fldl	-120432(%ebp,%eax,8)
	movl	-28(%ebp), %eax
	addl	$1, %eax
	movl	%eax, -160448(%ebp)
	fildl	-160448(%ebp)
	fmuls	-36(%ebp)
	fildl	-28(%ebp)
	fmuls	-36(%ebp)
	movl	-28(%ebp), %eax
	subl	$1, %eax
	movl	%eax, -160448(%ebp)
	fildl	-160448(%ebp)
	fmuls	-36(%ebp)
	fxch	%st(5)
	leal	-72(%ebp), %eax
	movl	%eax, 52(%esp)
	movl	%ecx, 48(%esp)
	fstpl	40(%esp)
	fxch	%st(3)
	fstpl	32(%esp)
	fxch	%st(1)
	fstpl	24(%esp)
	fstpl	16(%esp)
	fstpl	8(%esp)
	fstpl	(%esp)
	call	_Z3VADddddddPdS_
	.loc 1 1343 0
	addl	$1, -32(%ebp)
.L270:
	cmpl	$4, -32(%ebp)
	setle	%al
	testb	%al, %al
	jne	.L271
	.loc 1 1341 0
	addl	$1, -28(%ebp)
.L269:
	movl	12(%ebp), %eax
	movl	268(%eax), %eax
	subl	$1, %eax
	cmpl	-28(%ebp), %eax
	setg	%al
	testb	%al, %al
	jne	.L272
	.loc 1 1348 0
	movl	$0, -28(%ebp)
	jmp	.L273
.L274:
	.loc 1 1350 0
	movl	-28(%ebp), %edx
	movl	%edx, %eax
	sall	$2, %eax
	addl	%edx, %eax
	sall	$3, %eax
	leal	-24(%ebp), %edx
	leal	(%edx,%eax), %eax
	subl	$160376, %eax
	fldl	(%eax)
	fldl	.LC42
	fmulp	%st, %st(1)
	fldl	.LC43
	fdivrp	%st, %st(1)
	movl	-28(%ebp), %edx
	movl	%edx, %eax
	sall	$2, %eax
	addl	%edx, %eax
	sall	$3, %eax
	leal	-24(%ebp), %edx
	leal	(%edx,%eax), %eax
	subl	$160376, %eax
	fldl	(%eax)
	fldl	.LC42
	fmulp	%st, %st(1)
	fldl	.LC43
	fdivrp	%st, %st(1)
	fmulp	%st, %st(1)
	fstpl	-160664(%ebp)
	movl	-28(%ebp), %edx
	movl	%edx, %eax
	sall	$2, %eax
	addl	%edx, %eax
	sall	$3, %eax
	leal	-24(%ebp), %edx
	leal	(%edx,%eax), %eax
	subl	$120376, %eax
	fldl	(%eax)
	fldl	.LC42
	fmulp	%st, %st(1)
	fldl	.LC43
	fdivrp	%st, %st(1)
	fstpl	-160656(%ebp)
	movl	-28(%ebp), %edx
	movl	%edx, %eax
	sall	$2, %eax
	addl	%edx, %eax
	sall	$3, %eax
	leal	-24(%ebp), %edx
	leal	(%edx,%eax), %eax
	subl	$80376, %eax
	fldl	(%eax)
	fldl	.LC42
	fmulp	%st, %st(1)
	fldl	.LC43
	fdivrp	%st, %st(1)
	fstpl	-160648(%ebp)
	movl	-28(%ebp), %edx
	movl	%edx, %eax
	sall	$2, %eax
	addl	%edx, %eax
	sall	$3, %eax
	leal	-24(%ebp), %edx
	leal	(%edx,%eax), %eax
	subl	$40376, %eax
	fldl	(%eax)
	fstpl	-160640(%ebp)
	movl	-28(%ebp), %edx
	movl	%edx, %eax
	sall	$2, %eax
	addl	%edx, %eax
	sall	$3, %eax
	leal	-24(%ebp), %edx
	leal	(%edx,%eax), %eax
	subl	$160392, %eax
	fldl	8(%eax)
	fldl	.LC42
	fmulp	%st, %st(1)
	fldl	.LC43
	fdivrp	%st, %st(1)
	movl	-28(%ebp), %edx
	movl	%edx, %eax
	sall	$2, %eax
	addl	%edx, %eax
	sall	$3, %eax
	leal	-24(%ebp), %edx
	leal	(%edx,%eax), %eax
	subl	$160392, %eax
	fldl	8(%eax)
	fldl	.LC42
	fmulp	%st, %st(1)
	fldl	.LC43
	fdivrp	%st, %st(1)
	fmulp	%st, %st(1)
	fstpl	-160632(%ebp)
	movl	-28(%ebp), %edx
	movl	%edx, %eax
	sall	$2, %eax
	addl	%edx, %eax
	sall	$3, %eax
	leal	-24(%ebp), %edx
	leal	(%edx,%eax), %eax
	subl	$120392, %eax
	fldl	8(%eax)
	fldl	.LC42
	fmulp	%st, %st(1)
	fldl	.LC43
	fdivrp	%st, %st(1)
	fstpl	-160624(%ebp)
	movl	-28(%ebp), %edx
	movl	%edx, %eax
	sall	$2, %eax
	addl	%edx, %eax
	sall	$3, %eax
	leal	-24(%ebp), %edx
	leal	(%edx,%eax), %eax
	subl	$80392, %eax
	fldl	8(%eax)
	fldl	.LC42
	fmulp	%st, %st(1)
	fldl	.LC43
	fdivrp	%st, %st(1)
	fstpl	-160616(%ebp)
	movl	-28(%ebp), %edx
	movl	%edx, %eax
	sall	$2, %eax
	addl	%edx, %eax
	sall	$3, %eax
	leal	-24(%ebp), %edx
	leal	(%edx,%eax), %eax
	subl	$40392, %eax
	fldl	8(%eax)
	fstpl	-160608(%ebp)
	movl	-28(%ebp), %edx
	movl	%edx, %eax
	sall	$2, %eax
	addl	%edx, %eax
	sall	$3, %eax
	leal	-24(%ebp), %edx
	leal	(%edx,%eax), %eax
	subl	$160392, %eax
	fldl	(%eax)
	fldl	.LC42
	fmulp	%st, %st(1)
	fldl	.LC43
	fdivrp	%st, %st(1)
	movl	-28(%ebp), %edx
	movl	%edx, %eax
	sall	$2, %eax
	addl	%edx, %eax
	sall	$3, %eax
	leal	-24(%ebp), %edx
	leal	(%edx,%eax), %eax
	subl	$160392, %eax
	fldl	(%eax)
	fldl	.LC42
	fmulp	%st, %st(1)
	fldl	.LC43
	fdivrp	%st, %st(1)
	fmulp	%st, %st(1)
	fstpl	-160600(%ebp)
	movl	-28(%ebp), %edx
	movl	%edx, %eax
	sall	$2, %eax
	addl	%edx, %eax
	sall	$3, %eax
	leal	-24(%ebp), %edx
	leal	(%edx,%eax), %eax
	subl	$120392, %eax
	fldl	(%eax)
	fldl	.LC42
	fmulp	%st, %st(1)
	fldl	.LC43
	fdivrp	%st, %st(1)
	fstpl	-160592(%ebp)
	movl	-28(%ebp), %edx
	movl	%edx, %eax
	sall	$2, %eax
	addl	%edx, %eax
	sall	$3, %eax
	leal	-24(%ebp), %edx
	leal	(%edx,%eax), %eax
	subl	$80392, %eax
	fldl	(%eax)
	fldl	.LC42
	fmulp	%st, %st(1)
	fldl	.LC43
	fdivrp	%st, %st(1)
	fstpl	-160584(%ebp)
	movl	-28(%ebp), %edx
	movl	%edx, %eax
	sall	$2, %eax
	addl	%edx, %eax
	sall	$3, %eax
	leal	-24(%ebp), %edx
	leal	(%edx,%eax), %eax
	subl	$40392, %eax
	fldl	(%eax)
	fstpl	-160576(%ebp)
	movl	-28(%ebp), %edx
	movl	%edx, %eax
	sall	$2, %eax
	addl	%edx, %eax
	sall	$3, %eax
	leal	-24(%ebp), %edx
	leal	(%edx,%eax), %eax
	subl	$160408, %eax
	fldl	8(%eax)
	fldl	.LC42
	fmulp	%st, %st(1)
	fldl	.LC43
	fdivrp	%st, %st(1)
	movl	-28(%ebp), %edx
	movl	%edx, %eax
	sall	$2, %eax
	addl	%edx, %eax
	sall	$3, %eax
	leal	-24(%ebp), %edx
	leal	(%edx,%eax), %eax
	subl	$160408, %eax
	fldl	8(%eax)
	fldl	.LC42
	fmulp	%st, %st(1)
	fldl	.LC43
	fdivrp	%st, %st(1)
	fmulp	%st, %st(1)
	fstpl	-160568(%ebp)
	movl	-28(%ebp), %edx
	movl	%edx, %eax
	sall	$2, %eax
	addl	%edx, %eax
	sall	$3, %eax
	leal	-24(%ebp), %edx
	leal	(%edx,%eax), %eax
	subl	$120408, %eax
	fldl	8(%eax)
	fldl	.LC42
	fmulp	%st, %st(1)
	fldl	.LC43
	fdivrp	%st, %st(1)
	movl	-28(%ebp), %edx
	movl	%edx, %eax
	sall	$2, %eax
	addl	%edx, %eax
	sall	$3, %eax
	leal	-24(%ebp), %edx
	leal	(%edx,%eax), %eax
	subl	$80408, %eax
	fldl	8(%eax)
	fldl	.LC42
	fmulp	%st, %st(1)
	fldl	.LC43
	fdivrp	%st, %st(1)
	movl	-28(%ebp), %edx
	movl	%edx, %eax
	sall	$2, %eax
	addl	%edx, %eax
	sall	$3, %eax
	leal	-24(%ebp), %edx
	leal	(%edx,%eax), %eax
	subl	$40408, %eax
	fldl	8(%eax)
	movl	-28(%ebp), %edx
	movl	%edx, %eax
	sall	$2, %eax
	addl	%edx, %eax
	sall	$3, %eax
	leal	-24(%ebp), %edx
	leal	(%edx,%eax), %eax
	subl	$160408, %eax
	fldl	(%eax)
	fldl	.LC41
	fmulp	%st, %st(1)
	movl	-28(%ebp), %edx
	movl	%edx, %eax
	sall	$2, %eax
	addl	%edx, %eax
	sall	$3, %eax
	leal	-24(%ebp), %edx
	leal	(%edx,%eax), %eax
	subl	$160408, %eax
	fldl	(%eax)
	fldl	.LC41
	fmulp	%st, %st(1)
	fmulp	%st, %st(1)
	movl	-28(%ebp), %edx
	movl	%edx, %eax
	sall	$2, %eax
	addl	%edx, %eax
	sall	$3, %eax
	leal	-24(%ebp), %edx
	leal	(%edx,%eax), %eax
	subl	$120408, %eax
	fldl	(%eax)
	fldl	.LC41
	fmulp	%st, %st(1)
	movl	-28(%ebp), %edx
	movl	%edx, %eax
	sall	$2, %eax
	addl	%edx, %eax
	sall	$3, %eax
	leal	-24(%ebp), %edx
	leal	(%edx,%eax), %eax
	subl	$80408, %eax
	fldl	(%eax)
	fldl	.LC41
	fmulp	%st, %st(1)
	movl	-28(%ebp), %edx
	movl	%edx, %eax
	sall	$2, %eax
	addl	%edx, %eax
	sall	$3, %eax
	leal	-24(%ebp), %edx
	leal	(%edx,%eax), %eax
	subl	$40408, %eax
	fldl	(%eax)
	fildl	-28(%ebp)
	fmuls	-36(%ebp)
	fstpl	-160688(%ebp)
	fldl	-160664(%ebp)
	fstpl	164(%esp)
	fldl	-160656(%ebp)
	fstpl	156(%esp)
	fldl	-160648(%ebp)
	fstpl	148(%esp)
	fldl	-160640(%ebp)
	fstpl	140(%esp)
	fldl	-160632(%ebp)
	fstpl	132(%esp)
	fldl	-160624(%ebp)
	fstpl	124(%esp)
	fldl	-160616(%ebp)
	fstpl	116(%esp)
	fldl	-160608(%ebp)
	fstpl	108(%esp)
	fldl	-160600(%ebp)
	fstpl	100(%esp)
	fldl	-160592(%ebp)
	fstpl	92(%esp)
	fldl	-160584(%ebp)
	fstpl	84(%esp)
	fldl	-160576(%ebp)
	fstpl	76(%esp)
	fldl	-160568(%ebp)
	fstpl	68(%esp)
	fxch	%st(6)
	fstpl	60(%esp)
	fxch	%st(4)
	fstpl	52(%esp)
	fxch	%st(2)
	fstpl	44(%esp)
	fstpl	36(%esp)
	fstpl	28(%esp)
	fstpl	20(%esp)
	fstpl	12(%esp)
	fldl	-160688(%ebp)
	fstpl	4(%esp)
	movl	$.LC57, (%esp)
	call	printf
	.loc 1 1348 0
	addl	$1, -28(%ebp)
.L273:
	movl	12(%ebp), %eax
	movl	268(%eax), %eax
	cmpl	-28(%ebp), %eax
	setg	%al
	testb	%al, %al
	jne	.L274
	.loc 1 1353 0
	movl	$0, -44(%ebp)
	.loc 1 1357 0
	movl	$0, -40(%ebp)
	jmp	.L275
.L314:
.LBB44:
	.loc 1 1359 0
	movl	12(%ebp), %eax
	flds	300(%eax)
	movl	12(%ebp), %eax
	movl	268(%eax), %eax
	movl	%eax, -160448(%ebp)
	fildl	-160448(%ebp)
	fldl	.LC47
	fmulp	%st, %st(1)
	fdivrp	%st, %st(1)
	fstps	-36(%ebp)
	.loc 1 1360 0
	fldz
	fstpl	-80432(%ebp)
	fldz
	fstpl	-80424(%ebp)
	fldz
	fstpl	-80416(%ebp)
	fldz
	fstpl	-80408(%ebp)
	fldz
	fstpl	-80400(%ebp)
	.loc 1 1361 0
	movl	12(%ebp), %eax
	movl	268(%eax), %eax
	leal	-1(%eax), %edx
	movl	%edx, %eax
	sall	$2, %eax
	addl	%edx, %eax
	sall	$3, %eax
	leal	-24(%ebp), %edx
	leal	(%edx,%eax), %eax
	subl	$80408, %eax
	fldz
	fstpl	(%eax)
	movl	12(%ebp), %eax
	movl	268(%eax), %eax
	leal	-1(%eax), %edx
	movl	%edx, %eax
	sall	$2, %eax
	addl	%edx, %eax
	sall	$3, %eax
	leal	-24(%ebp), %edx
	leal	(%edx,%eax), %eax
	subl	$80408, %eax
	fldz
	fstpl	8(%eax)
	movl	12(%ebp), %eax
	movl	268(%eax), %eax
	leal	-1(%eax), %edx
	movl	%edx, %eax
	sall	$2, %eax
	addl	%edx, %eax
	sall	$3, %eax
	leal	-24(%ebp), %edx
	leal	(%edx,%eax), %eax
	subl	$80392, %eax
	fldz
	fstpl	(%eax)
	movl	12(%ebp), %eax
	movl	268(%eax), %eax
	leal	-1(%eax), %edx
	movl	%edx, %eax
	sall	$2, %eax
	addl	%edx, %eax
	sall	$3, %eax
	leal	-24(%ebp), %edx
	leal	(%edx,%eax), %eax
	subl	$80392, %eax
	fldz
	fstpl	8(%eax)
	movl	12(%ebp), %eax
	movl	268(%eax), %eax
	leal	-1(%eax), %edx
	movl	%edx, %eax
	sall	$2, %eax
	addl	%edx, %eax
	sall	$3, %eax
	leal	-24(%ebp), %edx
	leal	(%edx,%eax), %eax
	subl	$80376, %eax
	fldz
	fstpl	(%eax)
	.loc 1 1362 0
	movl	$1, -28(%ebp)
	jmp	.L276
.L279:
	.loc 1 1364 0
	movl	$0, -32(%ebp)
	jmp	.L277
.L278:
	.loc 1 1366 0
	movl	-28(%ebp), %edx
	movl	-32(%ebp), %ebx
	leal	-80432(%ebp), %ecx
	movl	%edx, %eax
	sall	$2, %eax
	addl	%edx, %eax
	addl	%ebx, %eax
	sall	$3, %eax
	addl	%eax, %ecx
	movl	-28(%ebp), %eax
	leal	1(%eax), %edx
	movl	-32(%ebp), %ebx
	movl	%edx, %eax
	sall	$2, %eax
	addl	%edx, %eax
	addl	%ebx, %eax
	fldl	-40432(%ebp,%eax,8)
	movl	-28(%ebp), %edx
	movl	-32(%ebp), %ebx
	movl	%edx, %eax
	sall	$2, %eax
	addl	%edx, %eax
	addl	%ebx, %eax
	fldl	-40432(%ebp,%eax,8)
	movl	-28(%ebp), %eax
	leal	-1(%eax), %edx
	movl	-32(%ebp), %ebx
	movl	%edx, %eax
	sall	$2, %eax
	addl	%edx, %eax
	addl	%ebx, %eax
	fldl	-40432(%ebp,%eax,8)
	movl	-28(%ebp), %eax
	addl	$1, %eax
	movl	%eax, -160448(%ebp)
	fildl	-160448(%ebp)
	fmuls	-36(%ebp)
	fildl	-28(%ebp)
	fmuls	-36(%ebp)
	movl	-28(%ebp), %eax
	subl	$1, %eax
	movl	%eax, -160448(%ebp)
	fildl	-160448(%ebp)
	fmuls	-36(%ebp)
	fxch	%st(5)
	leal	-72(%ebp), %eax
	movl	%eax, 52(%esp)
	movl	%ecx, 48(%esp)
	fstpl	40(%esp)
	fxch	%st(3)
	fstpl	32(%esp)
	fxch	%st(1)
	fstpl	24(%esp)
	fstpl	16(%esp)
	fstpl	8(%esp)
	fstpl	(%esp)
	call	_Z3VADddddddPdS_
	.loc 1 1364 0
	addl	$1, -32(%ebp)
.L277:
	cmpl	$4, -32(%ebp)
	setle	%al
	testb	%al, %al
	jne	.L278
	.loc 1 1362 0
	addl	$1, -28(%ebp)
.L276:
	movl	12(%ebp), %eax
	movl	268(%eax), %eax
	subl	$1, %eax
	cmpl	-28(%ebp), %eax
	setg	%al
	testb	%al, %al
	jne	.L279
	.loc 1 1369 0
	fldz
	fstpl	-120432(%ebp)
	fldz
	fstpl	-120424(%ebp)
	fldz
	fstpl	-120416(%ebp)
	fldz
	fstpl	-120408(%ebp)
	fldz
	fstpl	-120400(%ebp)
	.loc 1 1370 0
	movl	12(%ebp), %eax
	movl	268(%eax), %eax
	leal	-1(%eax), %edx
	movl	%edx, %eax
	sall	$2, %eax
	addl	%edx, %eax
	sall	$3, %eax
	leal	-24(%ebp), %edx
	leal	(%edx,%eax), %eax
	subl	$120408, %eax
	fldz
	fstpl	(%eax)
	movl	12(%ebp), %eax
	movl	268(%eax), %eax
	leal	-1(%eax), %edx
	movl	%edx, %eax
	sall	$2, %eax
	addl	%edx, %eax
	sall	$3, %eax
	leal	-24(%ebp), %edx
	leal	(%edx,%eax), %eax
	subl	$120408, %eax
	fldz
	fstpl	8(%eax)
	movl	12(%ebp), %eax
	movl	268(%eax), %eax
	leal	-1(%eax), %edx
	movl	%edx, %eax
	sall	$2, %eax
	addl	%edx, %eax
	sall	$3, %eax
	leal	-24(%ebp), %edx
	leal	(%edx,%eax), %eax
	subl	$120392, %eax
	fldz
	fstpl	(%eax)
	movl	12(%ebp), %eax
	movl	268(%eax), %eax
	leal	-1(%eax), %edx
	movl	%edx, %eax
	sall	$2, %eax
	addl	%edx, %eax
	sall	$3, %eax
	leal	-24(%ebp), %edx
	leal	(%edx,%eax), %eax
	subl	$120392, %eax
	fldz
	fstpl	8(%eax)
	movl	12(%ebp), %eax
	movl	268(%eax), %eax
	leal	-1(%eax), %edx
	movl	%edx, %eax
	sall	$2, %eax
	addl	%edx, %eax
	sall	$3, %eax
	leal	-24(%ebp), %edx
	leal	(%edx,%eax), %eax
	subl	$120376, %eax
	fldz
	fstpl	(%eax)
	.loc 1 1371 0
	movl	$1, -28(%ebp)
	jmp	.L280
.L283:
	.loc 1 1373 0
	movl	$0, -32(%ebp)
	jmp	.L281
.L282:
	.loc 1 1375 0
	movl	-28(%ebp), %edx
	movl	-32(%ebp), %ebx
	leal	-120432(%ebp), %ecx
	movl	%edx, %eax
	sall	$2, %eax
	addl	%edx, %eax
	addl	%ebx, %eax
	sall	$3, %eax
	addl	%eax, %ecx
	movl	-28(%ebp), %eax
	leal	1(%eax), %edx
	movl	-32(%ebp), %ebx
	movl	%edx, %eax
	sall	$2, %eax
	addl	%edx, %eax
	addl	%ebx, %eax
	fldl	-80432(%ebp,%eax,8)
	movl	-28(%ebp), %edx
	movl	-32(%ebp), %ebx
	movl	%edx, %eax
	sall	$2, %eax
	addl	%edx, %eax
	addl	%ebx, %eax
	fldl	-80432(%ebp,%eax,8)
	movl	-28(%ebp), %eax
	leal	-1(%eax), %edx
	movl	-32(%ebp), %ebx
	movl	%edx, %eax
	sall	$2, %eax
	addl	%edx, %eax
	addl	%ebx, %eax
	fldl	-80432(%ebp,%eax,8)
	movl	-28(%ebp), %eax
	addl	$1, %eax
	movl	%eax, -160448(%ebp)
	fildl	-160448(%ebp)
	fmuls	-36(%ebp)
	fildl	-28(%ebp)
	fmuls	-36(%ebp)
	movl	-28(%ebp), %eax
	subl	$1, %eax
	movl	%eax, -160448(%ebp)
	fildl	-160448(%ebp)
	fmuls	-36(%ebp)
	fxch	%st(5)
	leal	-72(%ebp), %eax
	movl	%eax, 52(%esp)
	movl	%ecx, 48(%esp)
	fstpl	40(%esp)
	fxch	%st(3)
	fstpl	32(%esp)
	fxch	%st(1)
	fstpl	24(%esp)
	fstpl	16(%esp)
	fstpl	8(%esp)
	fstpl	(%esp)
	call	_Z3VADddddddPdS_
	.loc 1 1373 0
	addl	$1, -32(%ebp)
.L281:
	cmpl	$4, -32(%ebp)
	setle	%al
	testb	%al, %al
	jne	.L282
	.loc 1 1371 0
	addl	$1, -28(%ebp)
.L280:
	movl	12(%ebp), %eax
	movl	268(%eax), %eax
	subl	$1, %eax
	cmpl	-28(%ebp), %eax
	setg	%al
	testb	%al, %al
	jne	.L283
	.loc 1 1378 0
	fldz
	fstpl	-160432(%ebp)
	fldz
	fstpl	-160424(%ebp)
	fldz
	fstpl	-160416(%ebp)
	fldz
	fstpl	-160408(%ebp)
	fldz
	fstpl	-160400(%ebp)
	.loc 1 1379 0
	movl	12(%ebp), %eax
	movl	268(%eax), %eax
	leal	-1(%eax), %edx
	movl	%edx, %eax
	sall	$2, %eax
	addl	%edx, %eax
	sall	$3, %eax
	leal	-24(%ebp), %edx
	leal	(%edx,%eax), %eax
	subl	$160408, %eax
	fldz
	fstpl	(%eax)
	movl	12(%ebp), %eax
	movl	268(%eax), %eax
	leal	-1(%eax), %edx
	movl	%edx, %eax
	sall	$2, %eax
	addl	%edx, %eax
	sall	$3, %eax
	leal	-24(%ebp), %edx
	leal	(%edx,%eax), %eax
	subl	$160408, %eax
	fldz
	fstpl	8(%eax)
	movl	12(%ebp), %eax
	movl	268(%eax), %eax
	leal	-1(%eax), %edx
	movl	%edx, %eax
	sall	$2, %eax
	addl	%edx, %eax
	sall	$3, %eax
	leal	-24(%ebp), %edx
	leal	(%edx,%eax), %eax
	subl	$160392, %eax
	fldz
	fstpl	(%eax)
	movl	12(%ebp), %eax
	movl	268(%eax), %eax
	leal	-1(%eax), %edx
	movl	%edx, %eax
	sall	$2, %eax
	addl	%edx, %eax
	sall	$3, %eax
	leal	-24(%ebp), %edx
	leal	(%edx,%eax), %eax
	subl	$160392, %eax
	fldz
	fstpl	8(%eax)
	movl	12(%ebp), %eax
	movl	268(%eax), %eax
	leal	-1(%eax), %edx
	movl	%edx, %eax
	sall	$2, %eax
	addl	%edx, %eax
	sall	$3, %eax
	leal	-24(%ebp), %edx
	leal	(%edx,%eax), %eax
	subl	$160376, %eax
	fldz
	fstpl	(%eax)
	.loc 1 1380 0
	movl	$1, -28(%ebp)
	jmp	.L284
.L287:
	.loc 1 1382 0
	movl	$0, -32(%ebp)
	jmp	.L285
.L286:
	.loc 1 1384 0
	movl	-28(%ebp), %edx
	movl	-32(%ebp), %ebx
	leal	-160432(%ebp), %ecx
	movl	%edx, %eax
	sall	$2, %eax
	addl	%edx, %eax
	addl	%ebx, %eax
	sall	$3, %eax
	addl	%eax, %ecx
	movl	-28(%ebp), %eax
	leal	1(%eax), %edx
	movl	-32(%ebp), %ebx
	movl	%edx, %eax
	sall	$2, %eax
	addl	%edx, %eax
	addl	%ebx, %eax
	fldl	-120432(%ebp,%eax,8)
	movl	-28(%ebp), %edx
	movl	-32(%ebp), %ebx
	movl	%edx, %eax
	sall	$2, %eax
	addl	%edx, %eax
	addl	%ebx, %eax
	fldl	-120432(%ebp,%eax,8)
	movl	-28(%ebp), %eax
	leal	-1(%eax), %edx
	movl	-32(%ebp), %ebx
	movl	%edx, %eax
	sall	$2, %eax
	addl	%edx, %eax
	addl	%ebx, %eax
	fldl	-120432(%ebp,%eax,8)
	movl	-28(%ebp), %eax
	addl	$1, %eax
	movl	%eax, -160448(%ebp)
	fildl	-160448(%ebp)
	fmuls	-36(%ebp)
	fildl	-28(%ebp)
	fmuls	-36(%ebp)
	movl	-28(%ebp), %eax
	subl	$1, %eax
	movl	%eax, -160448(%ebp)
	fildl	-160448(%ebp)
	fmuls	-36(%ebp)
	fxch	%st(5)
	leal	-72(%ebp), %eax
	movl	%eax, 52(%esp)
	movl	%ecx, 48(%esp)
	fstpl	40(%esp)
	fxch	%st(3)
	fstpl	32(%esp)
	fxch	%st(1)
	fstpl	24(%esp)
	fstpl	16(%esp)
	fstpl	8(%esp)
	fstpl	(%esp)
	call	_Z3VADddddddPdS_
	.loc 1 1382 0
	addl	$1, -32(%ebp)
.L285:
	cmpl	$4, -32(%ebp)
	setle	%al
	testb	%al, %al
	jne	.L286
	.loc 1 1380 0
	addl	$1, -28(%ebp)
.L284:
	movl	12(%ebp), %eax
	movl	268(%eax), %eax
	subl	$1, %eax
	cmpl	-28(%ebp), %eax
	setg	%al
	testb	%al, %al
	jne	.L287
	.loc 1 1390 0
	movl	$0, -32(%ebp)
	jmp	.L288
.L313:
	.loc 1 1392 0
	movl	$1, -28(%ebp)
	jmp	.L289
.L290:
	.loc 1 1394 0
	movl	-28(%ebp), %edx
	movl	-32(%ebp), %ebx
	leal	-80432(%ebp), %ecx
	movl	%edx, %eax
	sall	$2, %eax
	addl	%edx, %eax
	addl	%ebx, %eax
	sall	$3, %eax
	addl	%eax, %ecx
	movl	-28(%ebp), %eax
	leal	1(%eax), %edx
	movl	-32(%ebp), %ebx
	movl	%edx, %eax
	sall	$2, %eax
	addl	%edx, %eax
	addl	%ebx, %eax
	fldl	-40432(%ebp,%eax,8)
	movl	-28(%ebp), %edx
	movl	-32(%ebp), %ebx
	movl	%edx, %eax
	sall	$2, %eax
	addl	%edx, %eax
	addl	%ebx, %eax
	fldl	-40432(%ebp,%eax,8)
	movl	-28(%ebp), %eax
	leal	-1(%eax), %edx
	movl	-32(%ebp), %ebx
	movl	%edx, %eax
	sall	$2, %eax
	addl	%edx, %eax
	addl	%ebx, %eax
	fldl	-40432(%ebp,%eax,8)
	movl	-28(%ebp), %eax
	addl	$1, %eax
	movl	%eax, -160448(%ebp)
	fildl	-160448(%ebp)
	fmuls	-36(%ebp)
	fildl	-28(%ebp)
	fmuls	-36(%ebp)
	movl	-28(%ebp), %eax
	subl	$1, %eax
	movl	%eax, -160448(%ebp)
	fildl	-160448(%ebp)
	fmuls	-36(%ebp)
	fxch	%st(5)
	leal	-72(%ebp), %eax
	movl	%eax, 52(%esp)
	movl	%ecx, 48(%esp)
	fstpl	40(%esp)
	fxch	%st(3)
	fstpl	32(%esp)
	fxch	%st(1)
	fstpl	24(%esp)
	fstpl	16(%esp)
	fstpl	8(%esp)
	fstpl	(%esp)
	call	_Z3VADddddddPdS_
	.loc 1 1392 0
	addl	$1, -28(%ebp)
.L289:
	movl	12(%ebp), %eax
	movl	268(%eax), %eax
	subl	$1, %eax
	cmpl	-28(%ebp), %eax
	setg	%al
	testb	%al, %al
	jne	.L290
	.loc 1 1396 0
	movl	$1, -28(%ebp)
	jmp	.L291
.L292:
	.loc 1 1398 0
	movl	-28(%ebp), %edx
	movl	-32(%ebp), %ebx
	leal	-120432(%ebp), %ecx
	movl	%edx, %eax
	sall	$2, %eax
	addl	%edx, %eax
	addl	%ebx, %eax
	sall	$3, %eax
	addl	%eax, %ecx
	movl	-28(%ebp), %eax
	leal	1(%eax), %edx
	movl	-32(%ebp), %ebx
	movl	%edx, %eax
	sall	$2, %eax
	addl	%edx, %eax
	addl	%ebx, %eax
	fldl	-80432(%ebp,%eax,8)
	movl	-28(%ebp), %edx
	movl	-32(%ebp), %ebx
	movl	%edx, %eax
	sall	$2, %eax
	addl	%edx, %eax
	addl	%ebx, %eax
	fldl	-80432(%ebp,%eax,8)
	movl	-28(%ebp), %eax
	leal	-1(%eax), %edx
	movl	-32(%ebp), %ebx
	movl	%edx, %eax
	sall	$2, %eax
	addl	%edx, %eax
	addl	%ebx, %eax
	fldl	-80432(%ebp,%eax,8)
	movl	-28(%ebp), %eax
	addl	$1, %eax
	movl	%eax, -160448(%ebp)
	fildl	-160448(%ebp)
	fmuls	-36(%ebp)
	fildl	-28(%ebp)
	fmuls	-36(%ebp)
	movl	-28(%ebp), %eax
	subl	$1, %eax
	movl	%eax, -160448(%ebp)
	fildl	-160448(%ebp)
	fmuls	-36(%ebp)
	fxch	%st(5)
	leal	-72(%ebp), %eax
	movl	%eax, 52(%esp)
	movl	%ecx, 48(%esp)
	fstpl	40(%esp)
	fxch	%st(3)
	fstpl	32(%esp)
	fxch	%st(1)
	fstpl	24(%esp)
	fstpl	16(%esp)
	fstpl	8(%esp)
	fstpl	(%esp)
	call	_Z3VADddddddPdS_
	.loc 1 1396 0
	addl	$1, -28(%ebp)
.L291:
	movl	12(%ebp), %eax
	movl	268(%eax), %eax
	subl	$1, %eax
	cmpl	-28(%ebp), %eax
	setg	%al
	testb	%al, %al
	jne	.L292
	.loc 1 1400 0
	movl	$1, -28(%ebp)
	jmp	.L293
.L294:
	.loc 1 1402 0
	movl	-28(%ebp), %edx
	movl	-32(%ebp), %ebx
	leal	-160432(%ebp), %ecx
	movl	%edx, %eax
	sall	$2, %eax
	addl	%edx, %eax
	addl	%ebx, %eax
	sall	$3, %eax
	addl	%eax, %ecx
	movl	-28(%ebp), %eax
	leal	1(%eax), %edx
	movl	-32(%ebp), %ebx
	movl	%edx, %eax
	sall	$2, %eax
	addl	%edx, %eax
	addl	%ebx, %eax
	fldl	-120432(%ebp,%eax,8)
	movl	-28(%ebp), %edx
	movl	-32(%ebp), %ebx
	movl	%edx, %eax
	sall	$2, %eax
	addl	%edx, %eax
	addl	%ebx, %eax
	fldl	-120432(%ebp,%eax,8)
	movl	-28(%ebp), %eax
	leal	-1(%eax), %edx
	movl	-32(%ebp), %ebx
	movl	%edx, %eax
	sall	$2, %eax
	addl	%edx, %eax
	addl	%ebx, %eax
	fldl	-120432(%ebp,%eax,8)
	movl	-28(%ebp), %eax
	addl	$1, %eax
	movl	%eax, -160448(%ebp)
	fildl	-160448(%ebp)
	fmuls	-36(%ebp)
	fildl	-28(%ebp)
	fmuls	-36(%ebp)
	movl	-28(%ebp), %eax
	subl	$1, %eax
	movl	%eax, -160448(%ebp)
	fildl	-160448(%ebp)
	fmuls	-36(%ebp)
	fxch	%st(5)
	leal	-72(%ebp), %eax
	movl	%eax, 52(%esp)
	movl	%ecx, 48(%esp)
	fstpl	40(%esp)
	fxch	%st(3)
	fstpl	32(%esp)
	fxch	%st(1)
	fstpl	24(%esp)
	fstpl	16(%esp)
	fstpl	8(%esp)
	fstpl	(%esp)
	call	_Z3VADddddddPdS_
	.loc 1 1400 0
	addl	$1, -28(%ebp)
.L293:
	movl	12(%ebp), %eax
	movl	268(%eax), %eax
	subl	$1, %eax
	cmpl	-28(%ebp), %eax
	setg	%al
	testb	%al, %al
	jne	.L294
	.loc 1 1404 0
	movl	$0x00000000, %eax
	movl	%eax, -48(%ebp)
	.loc 1 1405 0
	movl	$2, -44(%ebp)
	.loc 1 1406 0
	movl	$2, -28(%ebp)
	jmp	.L295
.L297:
	.loc 1 1408 0
	movl	-28(%ebp), %edx
	movl	-32(%ebp), %ecx
	movl	%edx, %eax
	sall	$2, %eax
	addl	%edx, %eax
	addl	%ecx, %eax
	fldl	-160432(%ebp,%eax,8)
	fstps	-56(%ebp)
	.loc 1 1409 0
	flds	-56(%ebp)
	fmuls	-56(%ebp)
	fstps	-56(%ebp)
	.loc 1 1410 0
	flds	-56(%ebp)
	flds	-48(%ebp)
	fxch	%st(1)
	fucompp
	fnstsw	%ax
	sahf
	seta	%al
	testb	%al, %al
	je	.L296
	.loc 1 1412 0
	movl	-56(%ebp), %eax
	movl	%eax, -48(%ebp)
	.loc 1 1413 0
	movl	-28(%ebp), %eax
	movl	%eax, -44(%ebp)
.L296:
	.loc 1 1406 0
	addl	$1, -28(%ebp)
.L295:
	movl	12(%ebp), %eax
	movl	268(%eax), %eax
	subl	$2, %eax
	cmpl	-28(%ebp), %eax
	setg	%al
	testb	%al, %al
	jne	.L297
	.loc 1 1416 0
	cmpl	$1, -44(%ebp)
	jle	.L298
	movl	12(%ebp), %eax
	movl	268(%eax), %eax
	subl	$3, %eax
	cmpl	-44(%ebp), %eax
	jl	.L298
	.loc 1 1418 0
	fld1
	fstpl	8(%esp)
	fldz
	fstpl	(%esp)
	call	_Z7uniformdd
	fldl	.LC17
	fxch	%st(1)
	fucompp
	fnstsw	%ax
	sahf
	setae	%al
	testb	%al, %al
	je	.L299
	.loc 1 1419 0
	movl	$2, (%esp)
	call	_Z11randomindexi
	addl	%eax, -44(%ebp)
	jmp	.L298
.L299:
	.loc 1 1421 0
	movl	$2, (%esp)
	call	_Z11randomindexi
	subl	%eax, -44(%ebp)
.L298:
	.loc 1 1425 0
	movl	$0x00000000, %eax
	movl	%eax, -56(%ebp)
	.loc 1 1426 0
	movl	$0, -28(%ebp)
	jmp	.L300
.L301:
	.loc 1 1428 0
	flds	-56(%ebp)
	movl	-28(%ebp), %edx
	movl	-32(%ebp), %ecx
	movl	%edx, %eax
	sall	$2, %eax
	addl	%edx, %eax
	addl	%ecx, %eax
	fldl	-160432(%ebp,%eax,8)
	movl	-28(%ebp), %edx
	movl	-32(%ebp), %ecx
	movl	%edx, %eax
	sall	$2, %eax
	addl	%edx, %eax
	addl	%ecx, %eax
	fldl	-160432(%ebp,%eax,8)
	fmulp	%st, %st(1)
	faddp	%st, %st(1)
	fstps	-56(%ebp)
	.loc 1 1426 0
	addl	$1, -28(%ebp)
.L300:
	movl	12(%ebp), %eax
	movl	268(%eax), %eax
	cmpl	-28(%ebp), %eax
	setg	%al
	testb	%al, %al
	jne	.L301
	.loc 1 1430 0
	movl	-56(%ebp), %eax
	movl	%eax, -52(%ebp)
	.loc 1 1433 0
	movl	-32(%ebp), %ecx
	movl	-44(%ebp), %eax
	leal	-1(%eax), %edx
	movl	-32(%ebp), %ebx
	movl	%edx, %eax
	sall	$2, %eax
	addl	%edx, %eax
	addl	%ebx, %eax
	fldl	-40432(%ebp,%eax,8)
	fstpl	-352(%ebp,%ecx,8)
	.loc 1 1434 0
	movl	-32(%ebp), %ecx
	movl	-44(%ebp), %edx
	movl	-32(%ebp), %ebx
	movl	%edx, %eax
	sall	$2, %eax
	addl	%edx, %eax
	addl	%ebx, %eax
	fldl	-40432(%ebp,%eax,8)
	fstpl	-392(%ebp,%ecx,8)
	.loc 1 1435 0
	movl	-32(%ebp), %ecx
	movl	-44(%ebp), %eax
	leal	1(%eax), %edx
	movl	-32(%ebp), %ebx
	movl	%edx, %eax
	sall	$2, %eax
	addl	%edx, %eax
	addl	%ebx, %eax
	fldl	-40432(%ebp,%eax,8)
	fstpl	-432(%ebp,%ecx,8)
	.loc 1 1436 0
	movl	$0, -60(%ebp)
	jmp	.L302
.L312:
	.loc 1 1438 0
	movl	-32(%ebp), %ecx
	movl	-44(%ebp), %eax
	leal	-1(%eax), %edx
	movl	-32(%ebp), %ebx
	movl	%edx, %eax
	sall	$2, %eax
	addl	%edx, %eax
	addl	%ebx, %eax
	fldl	-40432(%ebp,%eax,8)
	fstpl	-232(%ebp,%ecx,8)
	.loc 1 1439 0
	movl	-32(%ebp), %ecx
	movl	-44(%ebp), %edx
	movl	-32(%ebp), %ebx
	movl	%edx, %eax
	sall	$2, %eax
	addl	%edx, %eax
	addl	%ebx, %eax
	fldl	-40432(%ebp,%eax,8)
	fstpl	-272(%ebp,%ecx,8)
	.loc 1 1440 0
	movl	-32(%ebp), %ecx
	movl	-44(%ebp), %eax
	leal	1(%eax), %edx
	movl	-32(%ebp), %ebx
	movl	%edx, %eax
	sall	$2, %eax
	addl	%edx, %eax
	addl	%ebx, %eax
	fldl	-40432(%ebp,%eax,8)
	fstpl	-312(%ebp,%ecx,8)
	.loc 1 1441 0
	movl	-32(%ebp), %ebx
	movl	-44(%ebp), %eax
	leal	-1(%eax), %edx
	movl	-32(%ebp), %ecx
	movl	%edx, %eax
	sall	$2, %eax
	addl	%edx, %eax
	addl	%ecx, %eax
	fldl	-40432(%ebp,%eax,8)
	movl	-40(%ebp), %eax
	addl	$1, %eax
	movl	%eax, -160448(%ebp)
	fildl	-160448(%ebp)
	fldl	.LC59
	fdivp	%st, %st(1)
	fldl	.LC60
	faddp	%st, %st(1)
	movl	-44(%ebp), %edx
	movl	-32(%ebp), %ecx
	movl	%edx, %eax
	sall	$2, %eax
	addl	%edx, %eax
	addl	%ecx, %eax
	fldl	-40432(%ebp,%eax,8)
	movl	-44(%ebp), %eax
	leal	-1(%eax), %edx
	movl	-32(%ebp), %ecx
	movl	%edx, %eax
	sall	$2, %eax
	addl	%edx, %eax
	addl	%ecx, %eax
	fldl	-40432(%ebp,%eax,8)
	fsubrp	%st, %st(1)
	fmulp	%st, %st(1)
	faddp	%st, %st(1)
	movl	-44(%ebp), %eax
	leal	-1(%eax), %edx
	movl	-32(%ebp), %ecx
	movl	%edx, %eax
	sall	$2, %eax
	addl	%edx, %eax
	addl	%ecx, %eax
	fldl	-40432(%ebp,%eax,8)
	fxch	%st(1)
	fstpl	8(%esp)
	fstpl	(%esp)
	call	_Z7uniformdd
	fstpl	-112(%ebp,%ebx,8)
	.loc 1 1442 0
	movl	-32(%ebp), %ebx
	movl	-44(%ebp), %edx
	movl	-32(%ebp), %ecx
	movl	%edx, %eax
	sall	$2, %eax
	addl	%edx, %eax
	addl	%ecx, %eax
	fldl	-40432(%ebp,%eax,8)
	fldl	.LC61
	fmulp	%st, %st(1)
	movl	-44(%ebp), %edx
	movl	-32(%ebp), %ecx
	movl	%edx, %eax
	sall	$2, %eax
	addl	%edx, %eax
	addl	%ecx, %eax
	fldl	-40432(%ebp,%eax,8)
	fldl	.LC62
	fmulp	%st, %st(1)
	fxch	%st(1)
	fstpl	8(%esp)
	fstpl	(%esp)
	call	_Z7uniformdd
	fstpl	-152(%ebp,%ebx,8)
	.loc 1 1443 0
	movl	-32(%ebp), %ebx
	movl	-44(%ebp), %eax
	leal	1(%eax), %edx
	movl	-32(%ebp), %ecx
	movl	%edx, %eax
	sall	$2, %eax
	addl	%edx, %eax
	addl	%ecx, %eax
	fldl	-40432(%ebp,%eax,8)
	movl	-40(%ebp), %eax
	addl	$1, %eax
	movl	%eax, -160448(%ebp)
	fildl	-160448(%ebp)
	fldl	.LC59
	fdivp	%st, %st(1)
	fldl	.LC60
	faddp	%st, %st(1)
	movl	-44(%ebp), %edx
	movl	-32(%ebp), %ecx
	movl	%edx, %eax
	sall	$2, %eax
	addl	%edx, %eax
	addl	%ecx, %eax
	fldl	-40432(%ebp,%eax,8)
	movl	-44(%ebp), %eax
	leal	1(%eax), %edx
	movl	-32(%ebp), %ecx
	movl	%edx, %eax
	sall	$2, %eax
	addl	%edx, %eax
	addl	%ecx, %eax
	fldl	-40432(%ebp,%eax,8)
	fsubrp	%st, %st(1)
	fmulp	%st, %st(1)
	faddp	%st, %st(1)
	movl	-44(%ebp), %eax
	leal	1(%eax), %edx
	movl	-32(%ebp), %ecx
	movl	%edx, %eax
	sall	$2, %eax
	addl	%edx, %eax
	addl	%ecx, %eax
	fldl	-40432(%ebp,%eax,8)
	fxch	%st(1)
	fstpl	8(%esp)
	fstpl	(%esp)
	call	_Z7uniformdd
	fstpl	-192(%ebp,%ebx,8)
	.loc 1 1444 0
	movl	-44(%ebp), %eax
	leal	-1(%eax), %edx
	movl	-32(%ebp), %ecx
	movl	-32(%ebp), %eax
	fldl	-112(%ebp,%eax,8)
	movl	%edx, %eax
	sall	$2, %eax
	addl	%edx, %eax
	addl	%ecx, %eax
	fstpl	-40432(%ebp,%eax,8)
	.loc 1 1445 0
	movl	-44(%ebp), %edx
	movl	-32(%ebp), %ecx
	movl	-32(%ebp), %eax
	fldl	-152(%ebp,%eax,8)
	movl	%edx, %eax
	sall	$2, %eax
	addl	%edx, %eax
	addl	%ecx, %eax
	fstpl	-40432(%ebp,%eax,8)
	.loc 1 1446 0
	movl	-44(%ebp), %eax
	leal	1(%eax), %edx
	movl	-32(%ebp), %ecx
	movl	-32(%ebp), %eax
	fldl	-192(%ebp,%eax,8)
	movl	%edx, %eax
	sall	$2, %eax
	addl	%edx, %eax
	addl	%ecx, %eax
	fstpl	-40432(%ebp,%eax,8)
	.loc 1 1448 0
	movl	$1, -28(%ebp)
	jmp	.L303
.L304:
	.loc 1 1450 0
	movl	-28(%ebp), %edx
	movl	-32(%ebp), %ebx
	leal	-80432(%ebp), %ecx
	movl	%edx, %eax
	sall	$2, %eax
	addl	%edx, %eax
	addl	%ebx, %eax
	sall	$3, %eax
	addl	%eax, %ecx
	movl	-28(%ebp), %eax
	leal	1(%eax), %edx
	movl	-32(%ebp), %ebx
	movl	%edx, %eax
	sall	$2, %eax
	addl	%edx, %eax
	addl	%ebx, %eax
	fldl	-40432(%ebp,%eax,8)
	movl	-28(%ebp), %edx
	movl	-32(%ebp), %ebx
	movl	%edx, %eax
	sall	$2, %eax
	addl	%edx, %eax
	addl	%ebx, %eax
	fldl	-40432(%ebp,%eax,8)
	movl	-28(%ebp), %eax
	leal	-1(%eax), %edx
	movl	-32(%ebp), %ebx
	movl	%edx, %eax
	sall	$2, %eax
	addl	%edx, %eax
	addl	%ebx, %eax
	fldl	-40432(%ebp,%eax,8)
	movl	-28(%ebp), %eax
	addl	$1, %eax
	movl	%eax, -160448(%ebp)
	fildl	-160448(%ebp)
	fmuls	-36(%ebp)
	fildl	-28(%ebp)
	fmuls	-36(%ebp)
	movl	-28(%ebp), %eax
	subl	$1, %eax
	movl	%eax, -160448(%ebp)
	fildl	-160448(%ebp)
	fmuls	-36(%ebp)
	fxch	%st(5)
	leal	-72(%ebp), %eax
	movl	%eax, 52(%esp)
	movl	%ecx, 48(%esp)
	fstpl	40(%esp)
	fxch	%st(3)
	fstpl	32(%esp)
	fxch	%st(1)
	fstpl	24(%esp)
	fstpl	16(%esp)
	fstpl	8(%esp)
	fstpl	(%esp)
	call	_Z3VADddddddPdS_
	.loc 1 1448 0
	addl	$1, -28(%ebp)
.L303:
	movl	12(%ebp), %eax
	movl	268(%eax), %eax
	subl	$1, %eax
	cmpl	-28(%ebp), %eax
	setg	%al
	testb	%al, %al
	jne	.L304
	.loc 1 1452 0
	movl	$1, -28(%ebp)
	jmp	.L305
.L306:
	.loc 1 1454 0
	movl	-28(%ebp), %edx
	movl	-32(%ebp), %ebx
	leal	-120432(%ebp), %ecx
	movl	%edx, %eax
	sall	$2, %eax
	addl	%edx, %eax
	addl	%ebx, %eax
	sall	$3, %eax
	addl	%eax, %ecx
	movl	-28(%ebp), %eax
	leal	1(%eax), %edx
	movl	-32(%ebp), %ebx
	movl	%edx, %eax
	sall	$2, %eax
	addl	%edx, %eax
	addl	%ebx, %eax
	fldl	-80432(%ebp,%eax,8)
	movl	-28(%ebp), %edx
	movl	-32(%ebp), %ebx
	movl	%edx, %eax
	sall	$2, %eax
	addl	%edx, %eax
	addl	%ebx, %eax
	fldl	-80432(%ebp,%eax,8)
	movl	-28(%ebp), %eax
	leal	-1(%eax), %edx
	movl	-32(%ebp), %ebx
	movl	%edx, %eax
	sall	$2, %eax
	addl	%edx, %eax
	addl	%ebx, %eax
	fldl	-80432(%ebp,%eax,8)
	movl	-28(%ebp), %eax
	addl	$1, %eax
	movl	%eax, -160448(%ebp)
	fildl	-160448(%ebp)
	fmuls	-36(%ebp)
	fildl	-28(%ebp)
	fmuls	-36(%ebp)
	movl	-28(%ebp), %eax
	subl	$1, %eax
	movl	%eax, -160448(%ebp)
	fildl	-160448(%ebp)
	fmuls	-36(%ebp)
	fxch	%st(5)
	leal	-72(%ebp), %eax
	movl	%eax, 52(%esp)
	movl	%ecx, 48(%esp)
	fstpl	40(%esp)
	fxch	%st(3)
	fstpl	32(%esp)
	fxch	%st(1)
	fstpl	24(%esp)
	fstpl	16(%esp)
	fstpl	8(%esp)
	fstpl	(%esp)
	call	_Z3VADddddddPdS_
	.loc 1 1452 0
	addl	$1, -28(%ebp)
.L305:
	movl	12(%ebp), %eax
	movl	268(%eax), %eax
	subl	$1, %eax
	cmpl	-28(%ebp), %eax
	setg	%al
	testb	%al, %al
	jne	.L306
	.loc 1 1456 0
	movl	$1, -28(%ebp)
	jmp	.L307
.L308:
	.loc 1 1458 0
	movl	-28(%ebp), %edx
	movl	-32(%ebp), %ebx
	leal	-160432(%ebp), %ecx
	movl	%edx, %eax
	sall	$2, %eax
	addl	%edx, %eax
	addl	%ebx, %eax
	sall	$3, %eax
	addl	%eax, %ecx
	movl	-28(%ebp), %eax
	leal	1(%eax), %edx
	movl	-32(%ebp), %ebx
	movl	%edx, %eax
	sall	$2, %eax
	addl	%edx, %eax
	addl	%ebx, %eax
	fldl	-120432(%ebp,%eax,8)
	movl	-28(%ebp), %edx
	movl	-32(%ebp), %ebx
	movl	%edx, %eax
	sall	$2, %eax
	addl	%edx, %eax
	addl	%ebx, %eax
	fldl	-120432(%ebp,%eax,8)
	movl	-28(%ebp), %eax
	leal	-1(%eax), %edx
	movl	-32(%ebp), %ebx
	movl	%edx, %eax
	sall	$2, %eax
	addl	%edx, %eax
	addl	%ebx, %eax
	fldl	-120432(%ebp,%eax,8)
	movl	-28(%ebp), %eax
	addl	$1, %eax
	movl	%eax, -160448(%ebp)
	fildl	-160448(%ebp)
	fmuls	-36(%ebp)
	fildl	-28(%ebp)
	fmuls	-36(%ebp)
	movl	-28(%ebp), %eax
	subl	$1, %eax
	movl	%eax, -160448(%ebp)
	fildl	-160448(%ebp)
	fmuls	-36(%ebp)
	fxch	%st(5)
	leal	-72(%ebp), %eax
	movl	%eax, 52(%esp)
	movl	%ecx, 48(%esp)
	fstpl	40(%esp)
	fxch	%st(3)
	fstpl	32(%esp)
	fxch	%st(1)
	fstpl	24(%esp)
	fstpl	16(%esp)
	fstpl	8(%esp)
	fstpl	(%esp)
	call	_Z3VADddddddPdS_
	.loc 1 1456 0
	addl	$1, -28(%ebp)
.L307:
	movl	12(%ebp), %eax
	movl	268(%eax), %eax
	subl	$1, %eax
	cmpl	-28(%ebp), %eax
	setg	%al
	testb	%al, %al
	jne	.L308
	.loc 1 1460 0
	movl	$0x00000000, %eax
	movl	%eax, -56(%ebp)
	.loc 1 1461 0
	movl	$0, -28(%ebp)
	jmp	.L309
.L310:
	.loc 1 1463 0
	flds	-56(%ebp)
	movl	-28(%ebp), %edx
	movl	-32(%ebp), %ecx
	movl	%edx, %eax
	sall	$2, %eax
	addl	%edx, %eax
	addl	%ecx, %eax
	fldl	-160432(%ebp,%eax,8)
	movl	-28(%ebp), %edx
	movl	-32(%ebp), %ecx
	movl	%edx, %eax
	sall	$2, %eax
	addl	%edx, %eax
	addl	%ecx, %eax
	fldl	-160432(%ebp,%eax,8)
	fmulp	%st, %st(1)
	faddp	%st, %st(1)
	fstps	-56(%ebp)
	.loc 1 1461 0
	addl	$1, -28(%ebp)
.L309:
	movl	12(%ebp), %eax
	movl	268(%eax), %eax
	cmpl	-28(%ebp), %eax
	setg	%al
	testb	%al, %al
	jne	.L310
	.loc 1 1465 0
	flds	-56(%ebp)
	flds	-52(%ebp)
	fucompp
	fnstsw	%ax
	testb	$69, %ah
	sete	%al
	testb	%al, %al
	je	.L311
	.loc 1 1467 0
	flds	-56(%ebp)
	flds	-52(%ebp)
	fxch	%st(1)
	fstpl	16(%esp)
	fstpl	8(%esp)
	movl	-32(%ebp), %eax
	movl	%eax, 4(%esp)
	movl	$.LC63, (%esp)
	call	printf
	.loc 1 1468 0
	movl	-56(%ebp), %eax
	movl	%eax, -52(%ebp)
	.loc 1 1469 0
	movl	-32(%ebp), %eax
	movl	-32(%ebp), %edx
	fldl	-112(%ebp,%edx,8)
	fstpl	-352(%ebp,%eax,8)
	.loc 1 1470 0
	movl	-32(%ebp), %eax
	movl	-32(%ebp), %edx
	fldl	-152(%ebp,%edx,8)
	fstpl	-392(%ebp,%eax,8)
	.loc 1 1471 0
	movl	-32(%ebp), %eax
	movl	-32(%ebp), %edx
	fldl	-192(%ebp,%edx,8)
	fstpl	-432(%ebp,%eax,8)
.L311:
	.loc 1 1475 0
	movl	-44(%ebp), %eax
	leal	-1(%eax), %edx
	movl	-32(%ebp), %ecx
	movl	-32(%ebp), %eax
	fldl	-232(%ebp,%eax,8)
	movl	%edx, %eax
	sall	$2, %eax
	addl	%edx, %eax
	addl	%ecx, %eax
	fstpl	-40432(%ebp,%eax,8)
	.loc 1 1476 0
	movl	-44(%ebp), %edx
	movl	-32(%ebp), %ecx
	movl	-32(%ebp), %eax
	fldl	-272(%ebp,%eax,8)
	movl	%edx, %eax
	sall	$2, %eax
	addl	%edx, %eax
	addl	%ecx, %eax
	fstpl	-40432(%ebp,%eax,8)
	.loc 1 1477 0
	movl	-44(%ebp), %eax
	leal	1(%eax), %edx
	movl	-32(%ebp), %ecx
	movl	-32(%ebp), %eax
	fldl	-312(%ebp,%eax,8)
	movl	%edx, %eax
	sall	$2, %eax
	addl	%edx, %eax
	addl	%ecx, %eax
	fstpl	-40432(%ebp,%eax,8)
	.loc 1 1436 0
	addl	$1, -60(%ebp)
.L302:
	cmpl	$2, -60(%ebp)
	setle	%al
	testb	%al, %al
	jne	.L312
	.loc 1 1480 0
	movl	-44(%ebp), %eax
	leal	-1(%eax), %edx
	movl	-32(%ebp), %ecx
	movl	-32(%ebp), %eax
	fldl	-352(%ebp,%eax,8)
	movl	%edx, %eax
	sall	$2, %eax
	addl	%edx, %eax
	addl	%ecx, %eax
	fstpl	-40432(%ebp,%eax,8)
	.loc 1 1481 0
	movl	-44(%ebp), %edx
	movl	-32(%ebp), %ecx
	movl	-32(%ebp), %eax
	fldl	-392(%ebp,%eax,8)
	movl	%edx, %eax
	sall	$2, %eax
	addl	%edx, %eax
	addl	%ecx, %eax
	fstpl	-40432(%ebp,%eax,8)
	.loc 1 1482 0
	movl	-44(%ebp), %eax
	leal	1(%eax), %edx
	movl	-32(%ebp), %ecx
	movl	-32(%ebp), %eax
	fldl	-432(%ebp,%eax,8)
	movl	%edx, %eax
	sall	$2, %eax
	addl	%edx, %eax
	addl	%ecx, %eax
	fstpl	-40432(%ebp,%eax,8)
	.loc 1 1390 0
	addl	$1, -32(%ebp)
.L288:
	cmpl	$4, -32(%ebp)
	setle	%al
	testb	%al, %al
	jne	.L313
.LBE44:
	.loc 1 1357 0
	addl	$1, -40(%ebp)
.L275:
	movl	-40(%ebp), %eax
	cmpl	20(%ebp), %eax
	setl	%al
	testb	%al, %al
	jne	.L314
	.loc 1 1513 0
	movl	$0, -28(%ebp)
	jmp	.L315
.L316:
	.loc 1 1515 0
	movl	-28(%ebp), %edx
	movl	%edx, %eax
	sall	$2, %eax
	addl	%edx, %eax
	sall	$3, %eax
	leal	-24(%ebp), %edx
	leal	(%edx,%eax), %eax
	subl	$40376, %eax
	fldl	(%eax)
	fstps	-160444(%ebp)
	flds	-160444(%ebp)
	movl	-28(%ebp), %edx
	movl	%edx, %eax
	sall	$2, %eax
	addl	%edx, %eax
	sall	$3, %eax
	leal	-24(%ebp), %edx
	leal	(%edx,%eax), %eax
	subl	$40392, %eax
	fldl	8(%eax)
	fstps	-160444(%ebp)
	flds	-160444(%ebp)
	movl	-28(%ebp), %edx
	movl	%edx, %eax
	sall	$2, %eax
	addl	%edx, %eax
	sall	$3, %eax
	leal	-24(%ebp), %edx
	leal	(%edx,%eax), %eax
	subl	$40392, %eax
	fldl	(%eax)
	fstps	-160444(%ebp)
	flds	-160444(%ebp)
	movl	-28(%ebp), %edx
	movl	%edx, %eax
	sall	$2, %eax
	addl	%edx, %eax
	sall	$3, %eax
	leal	-24(%ebp), %edx
	leal	(%edx,%eax), %eax
	subl	$40408, %eax
	fldl	8(%eax)
	fstps	-160444(%ebp)
	flds	-160444(%ebp)
	movl	-28(%ebp), %edx
	movl	%edx, %eax
	sall	$2, %eax
	addl	%edx, %eax
	sall	$3, %eax
	leal	-24(%ebp), %edx
	leal	(%edx,%eax), %eax
	subl	$40408, %eax
	fldl	(%eax)
	fstps	-160444(%ebp)
	flds	-160444(%ebp)
	fxch	%st(4)
	movl	16(%ebp), %eax
	movl	%eax, 28(%esp)
	movl	$0x00000000, %eax
	movl	%eax, 24(%esp)
	fstps	20(%esp)
	fxch	%st(2)
	fstps	16(%esp)
	fstps	12(%esp)
	fstps	8(%esp)
	fstps	4(%esp)
	movl	8(%ebp), %eax
	movl	%eax, (%esp)
	call	tmpnComputeFKlogic
	.loc 1 1516 0
	movl	-28(%ebp), %edx
	movl	8(%ebp), %eax
	movl	1316(%eax), %ecx
	movl	12(%ebp), %ebx
	movl	%edx, %eax
	addl	%eax, %eax
	addl	%edx, %eax
	sall	$4, %eax
	leal	(%ebx,%eax), %eax
	addl	$320, %eax
	movl	%ecx, (%eax)
	.loc 1 1517 0
	movl	-28(%ebp), %edx
	movl	8(%ebp), %eax
	movl	1320(%eax), %ecx
	movl	12(%ebp), %ebx
	movl	%edx, %eax
	addl	%eax, %eax
	addl	%edx, %eax
	sall	$4, %eax
	leal	(%ebx,%eax), %eax
	addl	$324, %eax
	movl	%ecx, (%eax)
	.loc 1 1518 0
	movl	-28(%ebp), %edx
	movl	8(%ebp), %eax
	movl	1324(%eax), %ecx
	movl	12(%ebp), %ebx
	movl	%edx, %eax
	addl	%eax, %eax
	addl	%edx, %eax
	sall	$4, %eax
	leal	(%ebx,%eax), %eax
	addl	$328, %eax
	movl	%ecx, (%eax)
	.loc 1 1519 0
	movl	-28(%ebp), %edx
	movl	8(%ebp), %eax
	movl	1328(%eax), %ecx
	movl	12(%ebp), %ebx
	movl	%edx, %eax
	addl	%eax, %eax
	addl	%edx, %eax
	sall	$4, %eax
	leal	(%ebx,%eax), %eax
	addl	$332, %eax
	movl	%ecx, (%eax)
	.loc 1 1520 0
	movl	-28(%ebp), %edx
	movl	8(%ebp), %eax
	movl	1332(%eax), %ecx
	movl	12(%ebp), %ebx
	movl	%edx, %eax
	addl	%eax, %eax
	addl	%edx, %eax
	sall	$4, %eax
	leal	(%ebx,%eax), %eax
	addl	$336, %eax
	movl	%ecx, (%eax)
	.loc 1 1521 0
	movl	-28(%ebp), %edx
	movl	8(%ebp), %eax
	movl	1336(%eax), %ecx
	movl	12(%ebp), %ebx
	movl	%edx, %eax
	addl	%eax, %eax
	addl	%edx, %eax
	sall	$4, %eax
	leal	(%ebx,%eax), %eax
	addl	$340, %eax
	movl	%ecx, (%eax)
	.loc 1 1513 0
	addl	$1, -28(%ebp)
.L315:
	movl	12(%ebp), %eax
	movl	268(%eax), %eax
	cmpl	-28(%ebp), %eax
	setg	%al
	testb	%al, %al
	jne	.L316
	.loc 1 1523 0
	movl	$.LC64, (%esp)
	call	puts
	.loc 1 1524 0
	fldz
	fstpl	-80432(%ebp)
	.loc 1 1525 0
	fldz
	fstpl	-80424(%ebp)
	.loc 1 1526 0
	fldz
	fstpl	-80416(%ebp)
	.loc 1 1527 0
	fldz
	fstpl	-80408(%ebp)
	.loc 1 1528 0
	fldz
	fstpl	-80400(%ebp)
	.loc 1 1529 0
	movl	12(%ebp), %eax
	movl	268(%eax), %eax
	leal	-1(%eax), %edx
	movl	%edx, %eax
	sall	$2, %eax
	addl	%edx, %eax
	sall	$3, %eax
	leal	-24(%ebp), %edx
	leal	(%edx,%eax), %eax
	subl	$80408, %eax
	fldz
	fstpl	(%eax)
	.loc 1 1530 0
	movl	12(%ebp), %eax
	movl	268(%eax), %eax
	leal	-1(%eax), %edx
	movl	%edx, %eax
	sall	$2, %eax
	addl	%edx, %eax
	sall	$3, %eax
	leal	-24(%ebp), %edx
	leal	(%edx,%eax), %eax
	subl	$80408, %eax
	fldz
	fstpl	8(%eax)
	.loc 1 1531 0
	movl	12(%ebp), %eax
	movl	268(%eax), %eax
	leal	-1(%eax), %edx
	movl	%edx, %eax
	sall	$2, %eax
	addl	%edx, %eax
	sall	$3, %eax
	leal	-24(%ebp), %edx
	leal	(%edx,%eax), %eax
	subl	$80392, %eax
	fldz
	fstpl	(%eax)
	.loc 1 1532 0
	movl	12(%ebp), %eax
	movl	268(%eax), %eax
	leal	-1(%eax), %edx
	movl	%edx, %eax
	sall	$2, %eax
	addl	%edx, %eax
	sall	$3, %eax
	leal	-24(%ebp), %edx
	leal	(%edx,%eax), %eax
	subl	$80392, %eax
	fldz
	fstpl	8(%eax)
	.loc 1 1533 0
	movl	12(%ebp), %eax
	movl	268(%eax), %eax
	leal	-1(%eax), %edx
	movl	%edx, %eax
	sall	$2, %eax
	addl	%edx, %eax
	sall	$3, %eax
	leal	-24(%ebp), %edx
	leal	(%edx,%eax), %eax
	subl	$80376, %eax
	fldz
	fstpl	(%eax)
	.loc 1 1534 0
	movl	$0, -28(%ebp)
	jmp	.L317
.L318:
	.loc 1 1536 0
	movl	-28(%ebp), %edx
	movl	12(%ebp), %ecx
	movl	%edx, %eax
	addl	%eax, %eax
	addl	%edx, %eax
	sall	$4, %eax
	leal	(%ecx,%eax), %eax
	addl	$340, %eax
	movl	(%eax), %edx
	movl	%edx, -160560(%ebp)
	movl	-28(%ebp), %edx
	movl	12(%ebp), %ecx
	movl	%edx, %eax
	addl	%eax, %eax
	addl	%edx, %eax
	sall	$4, %eax
	leal	(%ecx,%eax), %eax
	addl	$336, %eax
	movl	(%eax), %edx
	movl	%edx, -160556(%ebp)
	movl	-28(%ebp), %edx
	movl	12(%ebp), %ecx
	movl	%edx, %eax
	addl	%eax, %eax
	addl	%edx, %eax
	sall	$4, %eax
	leal	(%ecx,%eax), %eax
	addl	$332, %eax
	movl	(%eax), %edi
	movl	-28(%ebp), %edx
	movl	12(%ebp), %ecx
	movl	%edx, %eax
	addl	%eax, %eax
	addl	%edx, %eax
	sall	$4, %eax
	leal	(%ecx,%eax), %eax
	addl	$328, %eax
	movl	(%eax), %esi
	movl	-28(%ebp), %edx
	movl	12(%ebp), %ecx
	movl	%edx, %eax
	addl	%eax, %eax
	addl	%edx, %eax
	sall	$4, %eax
	leal	(%ecx,%eax), %eax
	addl	$324, %eax
	movl	(%eax), %ebx
	movl	-28(%ebp), %edx
	movl	12(%ebp), %ecx
	movl	%edx, %eax
	addl	%eax, %eax
	addl	%edx, %eax
	sall	$4, %eax
	leal	(%ecx,%eax), %eax
	addl	$320, %eax
	movl	(%eax), %eax
	movl	16(%ebp), %edx
	movl	%edx, 28(%esp)
	movl	-160560(%ebp), %edx
	movl	%edx, 24(%esp)
	movl	-160556(%ebp), %edx
	movl	%edx, 20(%esp)
	movl	%edi, 16(%esp)
	movl	%esi, 12(%esp)
	movl	%ebx, 8(%esp)
	movl	%eax, 4(%esp)
	movl	8(%ebp), %eax
	movl	%eax, (%esp)
	call	tmpnComputeIK
	.loc 1 1537 0
	movl	-28(%ebp), %edx
	movl	8(%ebp), %eax
	flds	2284(%eax)
	movl	%edx, %eax
	sall	$2, %eax
	addl	%edx, %eax
	sall	$3, %eax
	leal	-24(%ebp), %edx
	leal	(%edx,%eax), %eax
	subl	$40408, %eax
	fstpl	(%eax)
	.loc 1 1538 0
	movl	-28(%ebp), %edx
	movl	8(%ebp), %eax
	flds	2288(%eax)
	movl	%edx, %eax
	sall	$2, %eax
	addl	%edx, %eax
	sall	$3, %eax
	leal	-24(%ebp), %edx
	leal	(%edx,%eax), %eax
	subl	$40408, %eax
	fstpl	8(%eax)
	.loc 1 1539 0
	movl	-28(%ebp), %edx
	movl	8(%ebp), %eax
	flds	2292(%eax)
	movl	%edx, %eax
	sall	$2, %eax
	addl	%edx, %eax
	sall	$3, %eax
	leal	-24(%ebp), %edx
	leal	(%edx,%eax), %eax
	subl	$40392, %eax
	fstpl	(%eax)
	.loc 1 1540 0
	movl	-28(%ebp), %edx
	movl	8(%ebp), %eax
	flds	2296(%eax)
	movl	%edx, %eax
	sall	$2, %eax
	addl	%edx, %eax
	sall	$3, %eax
	leal	-24(%ebp), %edx
	leal	(%edx,%eax), %eax
	subl	$40392, %eax
	fstpl	8(%eax)
	.loc 1 1541 0
	movl	-28(%ebp), %edx
	movl	8(%ebp), %eax
	flds	2300(%eax)
	movl	%edx, %eax
	sall	$2, %eax
	addl	%edx, %eax
	sall	$3, %eax
	leal	-24(%ebp), %edx
	leal	(%edx,%eax), %eax
	subl	$40376, %eax
	fstpl	(%eax)
	.loc 1 1534 0
	addl	$1, -28(%ebp)
.L317:
	movl	12(%ebp), %eax
	movl	268(%eax), %eax
	cmpl	-28(%ebp), %eax
	setg	%al
	testb	%al, %al
	jne	.L318
	.loc 1 1543 0
	movl	$1, -28(%ebp)
	jmp	.L319
.L322:
	.loc 1 1545 0
	movl	$0, -32(%ebp)
	jmp	.L320
.L321:
	.loc 1 1547 0
	movl	-28(%ebp), %edx
	movl	-32(%ebp), %ebx
	leal	-80432(%ebp), %ecx
	movl	%edx, %eax
	sall	$2, %eax
	addl	%edx, %eax
	addl	%ebx, %eax
	sall	$3, %eax
	addl	%eax, %ecx
	movl	-28(%ebp), %eax
	leal	1(%eax), %edx
	movl	-32(%ebp), %ebx
	movl	%edx, %eax
	sall	$2, %eax
	addl	%edx, %eax
	addl	%ebx, %eax
	fldl	-40432(%ebp,%eax,8)
	movl	-28(%ebp), %edx
	movl	-32(%ebp), %ebx
	movl	%edx, %eax
	sall	$2, %eax
	addl	%edx, %eax
	addl	%ebx, %eax
	fldl	-40432(%ebp,%eax,8)
	movl	-28(%ebp), %eax
	leal	-1(%eax), %edx
	movl	-32(%ebp), %ebx
	movl	%edx, %eax
	sall	$2, %eax
	addl	%edx, %eax
	addl	%ebx, %eax
	fldl	-40432(%ebp,%eax,8)
	movl	-28(%ebp), %eax
	addl	$1, %eax
	movl	%eax, -160448(%ebp)
	fildl	-160448(%ebp)
	fmuls	-36(%ebp)
	fildl	-28(%ebp)
	fmuls	-36(%ebp)
	movl	-28(%ebp), %eax
	subl	$1, %eax
	movl	%eax, -160448(%ebp)
	fildl	-160448(%ebp)
	fmuls	-36(%ebp)
	fxch	%st(5)
	leal	-72(%ebp), %eax
	movl	%eax, 52(%esp)
	movl	%ecx, 48(%esp)
	fstpl	40(%esp)
	fxch	%st(3)
	fstpl	32(%esp)
	fxch	%st(1)
	fstpl	24(%esp)
	fstpl	16(%esp)
	fstpl	8(%esp)
	fstpl	(%esp)
	call	_Z3VADddddddPdS_
	.loc 1 1545 0
	addl	$1, -32(%ebp)
.L320:
	cmpl	$4, -32(%ebp)
	setle	%al
	testb	%al, %al
	jne	.L321
	.loc 1 1543 0
	addl	$1, -28(%ebp)
.L319:
	movl	12(%ebp), %eax
	movl	268(%eax), %eax
	subl	$1, %eax
	cmpl	-28(%ebp), %eax
	setg	%al
	testb	%al, %al
	jne	.L322
	.loc 1 1550 0
	fldz
	fstpl	-120432(%ebp)
	.loc 1 1551 0
	fldz
	fstpl	-120424(%ebp)
	.loc 1 1552 0
	fldz
	fstpl	-120416(%ebp)
	.loc 1 1553 0
	fldz
	fstpl	-120408(%ebp)
	.loc 1 1554 0
	fldz
	fstpl	-120400(%ebp)
	.loc 1 1555 0
	movl	12(%ebp), %eax
	movl	268(%eax), %eax
	leal	-1(%eax), %edx
	movl	%edx, %eax
	sall	$2, %eax
	addl	%edx, %eax
	sall	$3, %eax
	leal	-24(%ebp), %edx
	leal	(%edx,%eax), %eax
	subl	$120408, %eax
	fldz
	fstpl	(%eax)
	.loc 1 1556 0
	movl	12(%ebp), %eax
	movl	268(%eax), %eax
	leal	-1(%eax), %edx
	movl	%edx, %eax
	sall	$2, %eax
	addl	%edx, %eax
	sall	$3, %eax
	leal	-24(%ebp), %edx
	leal	(%edx,%eax), %eax
	subl	$120408, %eax
	fldz
	fstpl	8(%eax)
	.loc 1 1557 0
	movl	12(%ebp), %eax
	movl	268(%eax), %eax
	leal	-1(%eax), %edx
	movl	%edx, %eax
	sall	$2, %eax
	addl	%edx, %eax
	sall	$3, %eax
	leal	-24(%ebp), %edx
	leal	(%edx,%eax), %eax
	subl	$120392, %eax
	fldz
	fstpl	(%eax)
	.loc 1 1558 0
	movl	12(%ebp), %eax
	movl	268(%eax), %eax
	leal	-1(%eax), %edx
	movl	%edx, %eax
	sall	$2, %eax
	addl	%edx, %eax
	sall	$3, %eax
	leal	-24(%ebp), %edx
	leal	(%edx,%eax), %eax
	subl	$120392, %eax
	fldz
	fstpl	8(%eax)
	.loc 1 1559 0
	movl	12(%ebp), %eax
	movl	268(%eax), %eax
	leal	-1(%eax), %edx
	movl	%edx, %eax
	sall	$2, %eax
	addl	%edx, %eax
	sall	$3, %eax
	leal	-24(%ebp), %edx
	leal	(%edx,%eax), %eax
	subl	$120376, %eax
	fldz
	fstpl	(%eax)
	.loc 1 1560 0
	movl	$1, -28(%ebp)
	jmp	.L323
.L326:
	.loc 1 1562 0
	movl	$0, -32(%ebp)
	jmp	.L324
.L325:
	.loc 1 1564 0
	movl	-28(%ebp), %edx
	movl	-32(%ebp), %ebx
	leal	-120432(%ebp), %ecx
	movl	%edx, %eax
	sall	$2, %eax
	addl	%edx, %eax
	addl	%ebx, %eax
	sall	$3, %eax
	addl	%eax, %ecx
	movl	-28(%ebp), %eax
	leal	1(%eax), %edx
	movl	-32(%ebp), %ebx
	movl	%edx, %eax
	sall	$2, %eax
	addl	%edx, %eax
	addl	%ebx, %eax
	fldl	-80432(%ebp,%eax,8)
	movl	-28(%ebp), %edx
	movl	-32(%ebp), %ebx
	movl	%edx, %eax
	sall	$2, %eax
	addl	%edx, %eax
	addl	%ebx, %eax
	fldl	-80432(%ebp,%eax,8)
	movl	-28(%ebp), %eax
	leal	-1(%eax), %edx
	movl	-32(%ebp), %ebx
	movl	%edx, %eax
	sall	$2, %eax
	addl	%edx, %eax
	addl	%ebx, %eax
	fldl	-80432(%ebp,%eax,8)
	movl	-28(%ebp), %eax
	addl	$1, %eax
	movl	%eax, -160448(%ebp)
	fildl	-160448(%ebp)
	fmuls	-36(%ebp)
	fildl	-28(%ebp)
	fmuls	-36(%ebp)
	movl	-28(%ebp), %eax
	subl	$1, %eax
	movl	%eax, -160448(%ebp)
	fildl	-160448(%ebp)
	fmuls	-36(%ebp)
	fxch	%st(5)
	leal	-72(%ebp), %eax
	movl	%eax, 52(%esp)
	movl	%ecx, 48(%esp)
	fstpl	40(%esp)
	fxch	%st(3)
	fstpl	32(%esp)
	fxch	%st(1)
	fstpl	24(%esp)
	fstpl	16(%esp)
	fstpl	8(%esp)
	fstpl	(%esp)
	call	_Z3VADddddddPdS_
	.loc 1 1562 0
	addl	$1, -32(%ebp)
.L324:
	cmpl	$4, -32(%ebp)
	setle	%al
	testb	%al, %al
	jne	.L325
	.loc 1 1560 0
	addl	$1, -28(%ebp)
.L323:
	movl	12(%ebp), %eax
	movl	268(%eax), %eax
	subl	$1, %eax
	cmpl	-28(%ebp), %eax
	setg	%al
	testb	%al, %al
	jne	.L326
	.loc 1 1567 0
	fldz
	fstpl	-160432(%ebp)
	.loc 1 1568 0
	fldz
	fstpl	-160424(%ebp)
	.loc 1 1569 0
	fldz
	fstpl	-160416(%ebp)
	.loc 1 1570 0
	fldz
	fstpl	-160408(%ebp)
	.loc 1 1571 0
	fldz
	fstpl	-160400(%ebp)
	.loc 1 1572 0
	movl	12(%ebp), %eax
	movl	268(%eax), %eax
	leal	-1(%eax), %edx
	movl	%edx, %eax
	sall	$2, %eax
	addl	%edx, %eax
	sall	$3, %eax
	leal	-24(%ebp), %edx
	leal	(%edx,%eax), %eax
	subl	$160408, %eax
	fldz
	fstpl	(%eax)
	.loc 1 1573 0
	movl	12(%ebp), %eax
	movl	268(%eax), %eax
	leal	-1(%eax), %edx
	movl	%edx, %eax
	sall	$2, %eax
	addl	%edx, %eax
	sall	$3, %eax
	leal	-24(%ebp), %edx
	leal	(%edx,%eax), %eax
	subl	$160408, %eax
	fldz
	fstpl	8(%eax)
	.loc 1 1574 0
	movl	12(%ebp), %eax
	movl	268(%eax), %eax
	leal	-1(%eax), %edx
	movl	%edx, %eax
	sall	$2, %eax
	addl	%edx, %eax
	sall	$3, %eax
	leal	-24(%ebp), %edx
	leal	(%edx,%eax), %eax
	subl	$160392, %eax
	fldz
	fstpl	(%eax)
	.loc 1 1575 0
	movl	12(%ebp), %eax
	movl	268(%eax), %eax
	leal	-1(%eax), %edx
	movl	%edx, %eax
	sall	$2, %eax
	addl	%edx, %eax
	sall	$3, %eax
	leal	-24(%ebp), %edx
	leal	(%edx,%eax), %eax
	subl	$160392, %eax
	fldz
	fstpl	8(%eax)
	.loc 1 1576 0
	movl	12(%ebp), %eax
	movl	268(%eax), %eax
	leal	-1(%eax), %edx
	movl	%edx, %eax
	sall	$2, %eax
	addl	%edx, %eax
	sall	$3, %eax
	leal	-24(%ebp), %edx
	leal	(%edx,%eax), %eax
	subl	$160376, %eax
	fldz
	fstpl	(%eax)
	.loc 1 1577 0
	movl	$1, -28(%ebp)
	jmp	.L327
.L330:
	.loc 1 1579 0
	movl	$0, -32(%ebp)
	jmp	.L328
.L329:
	.loc 1 1581 0
	movl	-28(%ebp), %edx
	movl	-32(%ebp), %ebx
	leal	-160432(%ebp), %ecx
	movl	%edx, %eax
	sall	$2, %eax
	addl	%edx, %eax
	addl	%ebx, %eax
	sall	$3, %eax
	addl	%eax, %ecx
	movl	-28(%ebp), %eax
	leal	1(%eax), %edx
	movl	-32(%ebp), %ebx
	movl	%edx, %eax
	sall	$2, %eax
	addl	%edx, %eax
	addl	%ebx, %eax
	fldl	-120432(%ebp,%eax,8)
	movl	-28(%ebp), %edx
	movl	-32(%ebp), %ebx
	movl	%edx, %eax
	sall	$2, %eax
	addl	%edx, %eax
	addl	%ebx, %eax
	fldl	-120432(%ebp,%eax,8)
	movl	-28(%ebp), %eax
	leal	-1(%eax), %edx
	movl	-32(%ebp), %ebx
	movl	%edx, %eax
	sall	$2, %eax
	addl	%edx, %eax
	addl	%ebx, %eax
	fldl	-120432(%ebp,%eax,8)
	movl	-28(%ebp), %eax
	addl	$1, %eax
	movl	%eax, -160448(%ebp)
	fildl	-160448(%ebp)
	fmuls	-36(%ebp)
	fildl	-28(%ebp)
	fmuls	-36(%ebp)
	movl	-28(%ebp), %eax
	subl	$1, %eax
	movl	%eax, -160448(%ebp)
	fildl	-160448(%ebp)
	fmuls	-36(%ebp)
	fxch	%st(5)
	leal	-72(%ebp), %eax
	movl	%eax, 52(%esp)
	movl	%ecx, 48(%esp)
	fstpl	40(%esp)
	fxch	%st(3)
	fstpl	32(%esp)
	fxch	%st(1)
	fstpl	24(%esp)
	fstpl	16(%esp)
	fstpl	8(%esp)
	fstpl	(%esp)
	call	_Z3VADddddddPdS_
	.loc 1 1579 0
	addl	$1, -32(%ebp)
.L328:
	cmpl	$4, -32(%ebp)
	setle	%al
	testb	%al, %al
	jne	.L329
	.loc 1 1577 0
	addl	$1, -28(%ebp)
.L327:
	movl	12(%ebp), %eax
	movl	268(%eax), %eax
	subl	$1, %eax
	cmpl	-28(%ebp), %eax
	setg	%al
	testb	%al, %al
	jne	.L330
	.loc 1 1584 0
	movl	$0, -28(%ebp)
	jmp	.L331
.L332:
	.loc 1 1586 0
	movl	-28(%ebp), %edx
	movl	%edx, %eax
	sall	$2, %eax
	addl	%edx, %eax
	sall	$3, %eax
	leal	-24(%ebp), %edx
	leal	(%edx,%eax), %eax
	subl	$160376, %eax
	fldl	(%eax)
	fldl	.LC42
	fmulp	%st, %st(1)
	fldl	.LC43
	fdivrp	%st, %st(1)
	movl	-28(%ebp), %edx
	movl	%edx, %eax
	sall	$2, %eax
	addl	%edx, %eax
	sall	$3, %eax
	leal	-24(%ebp), %edx
	leal	(%edx,%eax), %eax
	subl	$160376, %eax
	fldl	(%eax)
	fldl	.LC42
	fmulp	%st, %st(1)
	fldl	.LC43
	fdivrp	%st, %st(1)
	fmulp	%st, %st(1)
	fstpl	-160552(%ebp)
	movl	-28(%ebp), %edx
	movl	%edx, %eax
	sall	$2, %eax
	addl	%edx, %eax
	sall	$3, %eax
	leal	-24(%ebp), %edx
	leal	(%edx,%eax), %eax
	subl	$120376, %eax
	fldl	(%eax)
	fldl	.LC42
	fmulp	%st, %st(1)
	fldl	.LC43
	fdivrp	%st, %st(1)
	fstpl	-160544(%ebp)
	movl	-28(%ebp), %edx
	movl	%edx, %eax
	sall	$2, %eax
	addl	%edx, %eax
	sall	$3, %eax
	leal	-24(%ebp), %edx
	leal	(%edx,%eax), %eax
	subl	$80376, %eax
	fldl	(%eax)
	fldl	.LC42
	fmulp	%st, %st(1)
	fldl	.LC43
	fdivrp	%st, %st(1)
	fstpl	-160536(%ebp)
	movl	-28(%ebp), %edx
	movl	%edx, %eax
	sall	$2, %eax
	addl	%edx, %eax
	sall	$3, %eax
	leal	-24(%ebp), %edx
	leal	(%edx,%eax), %eax
	subl	$40376, %eax
	fldl	(%eax)
	fstpl	-160528(%ebp)
	movl	-28(%ebp), %edx
	movl	%edx, %eax
	sall	$2, %eax
	addl	%edx, %eax
	sall	$3, %eax
	leal	-24(%ebp), %edx
	leal	(%edx,%eax), %eax
	subl	$160392, %eax
	fldl	8(%eax)
	fldl	.LC42
	fmulp	%st, %st(1)
	fldl	.LC43
	fdivrp	%st, %st(1)
	movl	-28(%ebp), %edx
	movl	%edx, %eax
	sall	$2, %eax
	addl	%edx, %eax
	sall	$3, %eax
	leal	-24(%ebp), %edx
	leal	(%edx,%eax), %eax
	subl	$160392, %eax
	fldl	8(%eax)
	fldl	.LC42
	fmulp	%st, %st(1)
	fldl	.LC43
	fdivrp	%st, %st(1)
	fmulp	%st, %st(1)
	fstpl	-160520(%ebp)
	movl	-28(%ebp), %edx
	movl	%edx, %eax
	sall	$2, %eax
	addl	%edx, %eax
	sall	$3, %eax
	leal	-24(%ebp), %edx
	leal	(%edx,%eax), %eax
	subl	$120392, %eax
	fldl	8(%eax)
	fldl	.LC42
	fmulp	%st, %st(1)
	fldl	.LC43
	fdivrp	%st, %st(1)
	fstpl	-160512(%ebp)
	movl	-28(%ebp), %edx
	movl	%edx, %eax
	sall	$2, %eax
	addl	%edx, %eax
	sall	$3, %eax
	leal	-24(%ebp), %edx
	leal	(%edx,%eax), %eax
	subl	$80392, %eax
	fldl	8(%eax)
	fldl	.LC42
	fmulp	%st, %st(1)
	fldl	.LC43
	fdivrp	%st, %st(1)
	fstpl	-160504(%ebp)
	movl	-28(%ebp), %edx
	movl	%edx, %eax
	sall	$2, %eax
	addl	%edx, %eax
	sall	$3, %eax
	leal	-24(%ebp), %edx
	leal	(%edx,%eax), %eax
	subl	$40392, %eax
	fldl	8(%eax)
	fstpl	-160496(%ebp)
	movl	-28(%ebp), %edx
	movl	%edx, %eax
	sall	$2, %eax
	addl	%edx, %eax
	sall	$3, %eax
	leal	-24(%ebp), %edx
	leal	(%edx,%eax), %eax
	subl	$160392, %eax
	fldl	(%eax)
	fldl	.LC42
	fmulp	%st, %st(1)
	fldl	.LC43
	fdivrp	%st, %st(1)
	movl	-28(%ebp), %edx
	movl	%edx, %eax
	sall	$2, %eax
	addl	%edx, %eax
	sall	$3, %eax
	leal	-24(%ebp), %edx
	leal	(%edx,%eax), %eax
	subl	$160392, %eax
	fldl	(%eax)
	fldl	.LC42
	fmulp	%st, %st(1)
	fldl	.LC43
	fdivrp	%st, %st(1)
	fmulp	%st, %st(1)
	fstpl	-160488(%ebp)
	movl	-28(%ebp), %edx
	movl	%edx, %eax
	sall	$2, %eax
	addl	%edx, %eax
	sall	$3, %eax
	leal	-24(%ebp), %edx
	leal	(%edx,%eax), %eax
	subl	$120392, %eax
	fldl	(%eax)
	fldl	.LC42
	fmulp	%st, %st(1)
	fldl	.LC43
	fdivrp	%st, %st(1)
	fstpl	-160480(%ebp)
	movl	-28(%ebp), %edx
	movl	%edx, %eax
	sall	$2, %eax
	addl	%edx, %eax
	sall	$3, %eax
	leal	-24(%ebp), %edx
	leal	(%edx,%eax), %eax
	subl	$80392, %eax
	fldl	(%eax)
	fldl	.LC42
	fmulp	%st, %st(1)
	fldl	.LC43
	fdivrp	%st, %st(1)
	fstpl	-160472(%ebp)
	movl	-28(%ebp), %edx
	movl	%edx, %eax
	sall	$2, %eax
	addl	%edx, %eax
	sall	$3, %eax
	leal	-24(%ebp), %edx
	leal	(%edx,%eax), %eax
	subl	$40392, %eax
	fldl	(%eax)
	fstpl	-160464(%ebp)
	movl	-28(%ebp), %edx
	movl	%edx, %eax
	sall	$2, %eax
	addl	%edx, %eax
	sall	$3, %eax
	leal	-24(%ebp), %edx
	leal	(%edx,%eax), %eax
	subl	$160408, %eax
	fldl	8(%eax)
	fldl	.LC42
	fmulp	%st, %st(1)
	fldl	.LC43
	fdivrp	%st, %st(1)
	movl	-28(%ebp), %edx
	movl	%edx, %eax
	sall	$2, %eax
	addl	%edx, %eax
	sall	$3, %eax
	leal	-24(%ebp), %edx
	leal	(%edx,%eax), %eax
	subl	$160408, %eax
	fldl	8(%eax)
	fldl	.LC42
	fmulp	%st, %st(1)
	fldl	.LC43
	fdivrp	%st, %st(1)
	fmulp	%st, %st(1)
	fstpl	-160456(%ebp)
	movl	-28(%ebp), %edx
	movl	%edx, %eax
	sall	$2, %eax
	addl	%edx, %eax
	sall	$3, %eax
	leal	-24(%ebp), %edx
	leal	(%edx,%eax), %eax
	subl	$120408, %eax
	fldl	8(%eax)
	fldl	.LC42
	fmulp	%st, %st(1)
	fldl	.LC43
	fdivrp	%st, %st(1)
	movl	-28(%ebp), %edx
	movl	%edx, %eax
	sall	$2, %eax
	addl	%edx, %eax
	sall	$3, %eax
	leal	-24(%ebp), %edx
	leal	(%edx,%eax), %eax
	subl	$80408, %eax
	fldl	8(%eax)
	fldl	.LC42
	fmulp	%st, %st(1)
	fldl	.LC43
	fdivrp	%st, %st(1)
	movl	-28(%ebp), %edx
	movl	%edx, %eax
	sall	$2, %eax
	addl	%edx, %eax
	sall	$3, %eax
	leal	-24(%ebp), %edx
	leal	(%edx,%eax), %eax
	subl	$40408, %eax
	fldl	8(%eax)
	movl	-28(%ebp), %edx
	movl	%edx, %eax
	sall	$2, %eax
	addl	%edx, %eax
	sall	$3, %eax
	leal	-24(%ebp), %edx
	leal	(%edx,%eax), %eax
	subl	$160408, %eax
	fldl	(%eax)
	fldl	.LC41
	fmulp	%st, %st(1)
	movl	-28(%ebp), %edx
	movl	%edx, %eax
	sall	$2, %eax
	addl	%edx, %eax
	sall	$3, %eax
	leal	-24(%ebp), %edx
	leal	(%edx,%eax), %eax
	subl	$160408, %eax
	fldl	(%eax)
	fldl	.LC41
	fmulp	%st, %st(1)
	fmulp	%st, %st(1)
	movl	-28(%ebp), %edx
	movl	%edx, %eax
	sall	$2, %eax
	addl	%edx, %eax
	sall	$3, %eax
	leal	-24(%ebp), %edx
	leal	(%edx,%eax), %eax
	subl	$120408, %eax
	fldl	(%eax)
	fldl	.LC41
	fmulp	%st, %st(1)
	movl	-28(%ebp), %edx
	movl	%edx, %eax
	sall	$2, %eax
	addl	%edx, %eax
	sall	$3, %eax
	leal	-24(%ebp), %edx
	leal	(%edx,%eax), %eax
	subl	$80408, %eax
	fldl	(%eax)
	fldl	.LC41
	fmulp	%st, %st(1)
	movl	-28(%ebp), %edx
	movl	%edx, %eax
	sall	$2, %eax
	addl	%edx, %eax
	sall	$3, %eax
	leal	-24(%ebp), %edx
	leal	(%edx,%eax), %eax
	subl	$40408, %eax
	fldl	(%eax)
	fildl	-28(%ebp)
	fmuls	-36(%ebp)
	fstpl	-160688(%ebp)
	fldl	-160552(%ebp)
	fstpl	164(%esp)
	fldl	-160544(%ebp)
	fstpl	156(%esp)
	fldl	-160536(%ebp)
	fstpl	148(%esp)
	fldl	-160528(%ebp)
	fstpl	140(%esp)
	fldl	-160520(%ebp)
	fstpl	132(%esp)
	fldl	-160512(%ebp)
	fstpl	124(%esp)
	fldl	-160504(%ebp)
	fstpl	116(%esp)
	fldl	-160496(%ebp)
	fstpl	108(%esp)
	fldl	-160488(%ebp)
	fstpl	100(%esp)
	fldl	-160480(%ebp)
	fstpl	92(%esp)
	fldl	-160472(%ebp)
	fstpl	84(%esp)
	fldl	-160464(%ebp)
	fstpl	76(%esp)
	fldl	-160456(%ebp)
	fstpl	68(%esp)
	fxch	%st(6)
	fstpl	60(%esp)
	fxch	%st(4)
	fstpl	52(%esp)
	fxch	%st(2)
	fstpl	44(%esp)
	fstpl	36(%esp)
	fstpl	28(%esp)
	fstpl	20(%esp)
	fstpl	12(%esp)
	fldl	-160688(%ebp)
	fstpl	4(%esp)
	movl	$.LC57, (%esp)
	call	printf
	.loc 1 1584 0
	addl	$1, -28(%ebp)
.L331:
	movl	12(%ebp), %eax
	movl	268(%eax), %eax
	cmpl	-28(%ebp), %eax
	setg	%al
	testb	%al, %al
	jne	.L332
.LBE43:
	.loc 1 1588 0
	addl	$160860, %esp
	popl	%ebx
	popl	%esi
	popl	%edi
	popl	%ebp
	ret
	.cfi_endproc
.LFE32:
	.size	jerkMinimizer, .-jerkMinimizer
.globl convertToFrame
	.type	convertToFrame, @function
convertToFrame:
.LFB33:
	.loc 1 1592 0
	.cfi_startproc
	.cfi_personality 0x0,__gxx_personality_v0
	pushl	%ebp
.LCFI48:
	.cfi_def_cfa_offset 8
	movl	%esp, %ebp
	.cfi_offset 5, -8
.LCFI49:
	.cfi_def_cfa_register 5
	call	mcount
	.loc 1 1592 0
	.loc 1 1593 0
	movl	16(%ebp), %eax
	flds	12(%eax)
	movl	12(%ebp), %eax
	movl	24(%ebp), %edx
	imull	$280, %eax, %eax
	leal	(%edx,%eax), %eax
	addl	$2592, %eax
	flds	(%eax)
	faddp	%st, %st(1)
	movl	20(%ebp), %eax
	movl	24(%ebp), %edx
	imull	$280, %eax, %eax
	leal	(%edx,%eax), %eax
	addl	$2592, %eax
	flds	(%eax)
	fsubrp	%st, %st(1)
	movl	8(%ebp), %eax
	fstps	(%eax)
	.loc 1 1594 0
	movl	16(%ebp), %eax
	flds	16(%eax)
	movl	12(%ebp), %eax
	movl	24(%ebp), %edx
	imull	$280, %eax, %eax
	leal	(%edx,%eax), %eax
	addl	$2596, %eax
	flds	(%eax)
	faddp	%st, %st(1)
	movl	20(%ebp), %eax
	movl	24(%ebp), %edx
	imull	$280, %eax, %eax
	leal	(%edx,%eax), %eax
	addl	$2596, %eax
	flds	(%eax)
	fsubrp	%st, %st(1)
	movl	8(%ebp), %eax
	fstps	4(%eax)
	.loc 1 1595 0
	movl	16(%ebp), %eax
	flds	20(%eax)
	movl	12(%ebp), %eax
	movl	24(%ebp), %edx
	imull	$280, %eax, %eax
	leal	(%edx,%eax), %eax
	addl	$2600, %eax
	flds	(%eax)
	faddp	%st, %st(1)
	movl	20(%ebp), %eax
	movl	24(%ebp), %edx
	imull	$280, %eax, %eax
	leal	(%edx,%eax), %eax
	addl	$2600, %eax
	flds	(%eax)
	fsubrp	%st, %st(1)
	movl	8(%ebp), %eax
	fstps	8(%eax)
	.loc 1 1596 0
	movl	16(%ebp), %eax
	flds	24(%eax)
	movl	12(%ebp), %eax
	movl	24(%ebp), %edx
	imull	$280, %eax, %eax
	leal	(%edx,%eax), %eax
	addl	$2604, %eax
	flds	(%eax)
	faddp	%st, %st(1)
	movl	20(%ebp), %eax
	movl	24(%ebp), %edx
	imull	$280, %eax, %eax
	leal	(%edx,%eax), %eax
	addl	$2604, %eax
	flds	(%eax)
	fsubrp	%st, %st(1)
	movl	8(%ebp), %eax
	fstps	12(%eax)
	.loc 1 1597 0
	movl	16(%ebp), %eax
	flds	28(%eax)
	movl	12(%ebp), %eax
	movl	24(%ebp), %edx
	imull	$280, %eax, %eax
	leal	(%edx,%eax), %eax
	addl	$2608, %eax
	flds	(%eax)
	faddp	%st, %st(1)
	movl	20(%ebp), %eax
	movl	24(%ebp), %edx
	imull	$280, %eax, %eax
	leal	(%edx,%eax), %eax
	addl	$2608, %eax
	flds	(%eax)
	fsubrp	%st, %st(1)
	movl	8(%ebp), %eax
	fstps	16(%eax)
	.loc 1 1598 0
	movl	16(%ebp), %eax
	flds	32(%eax)
	movl	12(%ebp), %eax
	movl	24(%ebp), %edx
	imull	$280, %eax, %eax
	leal	(%edx,%eax), %eax
	addl	$2612, %eax
	flds	(%eax)
	faddp	%st, %st(1)
	movl	20(%ebp), %eax
	movl	24(%ebp), %edx
	imull	$280, %eax, %eax
	leal	(%edx,%eax), %eax
	addl	$2612, %eax
	flds	(%eax)
	fsubrp	%st, %st(1)
	movl	8(%ebp), %eax
	fstps	20(%eax)
	.loc 1 1599 0
	popl	%ebp
	ret
	.cfi_endproc
.LFE33:
	.size	convertToFrame, .-convertToFrame
.globl convertToFrame_vectorstyle
	.type	convertToFrame_vectorstyle, @function
convertToFrame_vectorstyle:
.LFB34:
	.loc 1 1602 0
	.cfi_startproc
	.cfi_personality 0x0,__gxx_personality_v0
	pushl	%ebp
.LCFI50:
	.cfi_def_cfa_offset 8
	movl	%esp, %ebp
	.cfi_offset 5, -8
.LCFI51:
	.cfi_def_cfa_register 5
	call	mcount
	.loc 1 1602 0
	.loc 1 1603 0
	movl	16(%ebp), %eax
	flds	(%eax)
	movl	12(%ebp), %eax
	flds	256(%eax)
	faddp	%st, %st(1)
	movl	20(%ebp), %eax
	flds	256(%eax)
	fsubrp	%st, %st(1)
	movl	8(%ebp), %eax
	fstps	(%eax)
	.loc 1 1604 0
	movl	16(%ebp), %eax
	flds	4(%eax)
	movl	12(%ebp), %eax
	flds	260(%eax)
	faddp	%st, %st(1)
	movl	20(%ebp), %eax
	flds	260(%eax)
	fsubrp	%st, %st(1)
	movl	8(%ebp), %eax
	fstps	4(%eax)
	.loc 1 1605 0
	movl	16(%ebp), %eax
	flds	8(%eax)
	movl	12(%ebp), %eax
	flds	264(%eax)
	faddp	%st, %st(1)
	movl	20(%ebp), %eax
	flds	264(%eax)
	fsubrp	%st, %st(1)
	movl	8(%ebp), %eax
	fstps	8(%eax)
	.loc 1 1606 0
	movl	16(%ebp), %eax
	flds	12(%eax)
	movl	12(%ebp), %eax
	flds	268(%eax)
	faddp	%st, %st(1)
	movl	20(%ebp), %eax
	flds	268(%eax)
	fsubrp	%st, %st(1)
	movl	8(%ebp), %eax
	fstps	12(%eax)
	.loc 1 1607 0
	movl	16(%ebp), %eax
	flds	16(%eax)
	movl	12(%ebp), %eax
	flds	272(%eax)
	faddp	%st, %st(1)
	movl	20(%ebp), %eax
	flds	272(%eax)
	fsubrp	%st, %st(1)
	movl	8(%ebp), %eax
	fstps	16(%eax)
	.loc 1 1608 0
	movl	16(%ebp), %eax
	flds	20(%eax)
	movl	12(%ebp), %eax
	flds	276(%eax)
	faddp	%st, %st(1)
	movl	20(%ebp), %eax
	flds	276(%eax)
	fsubrp	%st, %st(1)
	movl	8(%ebp), %eax
	fstps	20(%eax)
	.loc 1 1609 0
	popl	%ebp
	ret
	.cfi_endproc
.LFE34:
	.size	convertToFrame_vectorstyle, .-convertToFrame_vectorstyle
	.section	.rodata
.LC65:
	.string	"base"
	.text
.globl blendCorner3
	.type	blendCorner3, @function
blendCorner3:
.LFB35:
	.loc 1 1612 0
	.cfi_startproc
	.cfi_personality 0x0,__gxx_personality_v0
	pushl	%ebp
.LCFI52:
	.cfi_def_cfa_offset 8
	movl	%esp, %ebp
	.cfi_offset 5, -8
.LCFI53:
	.cfi_def_cfa_register 5
	subl	$440, %esp
	call	mcount
	.loc 1 1612 0
.LBB45:
	.loc 1 1620 0
	movl	$-3, 4(%esp)
	movl	12(%ebp), %eax
	movl	%eax, (%esp)
	call	getPoint
	movl	%eax, -16(%ebp)
	.loc 1 1621 0
	movl	$-2, 4(%esp)
	movl	12(%ebp), %eax
	movl	%eax, (%esp)
	call	getPoint
	movl	%eax, -20(%ebp)
	.loc 1 1622 0
	movl	$-1, 4(%esp)
	movl	12(%ebp), %eax
	movl	%eax, (%esp)
	call	getPoint
	movl	%eax, -24(%ebp)
	.loc 1 1623 0
	movl	$0, 4(%esp)
	movl	12(%ebp), %eax
	movl	%eax, (%esp)
	call	getPoint
	movl	%eax, -28(%ebp)
	.loc 1 1624 0
	movl	$1, 4(%esp)
	movl	12(%ebp), %eax
	movl	%eax, (%esp)
	call	getPoint
	movl	%eax, -32(%ebp)
	.loc 1 1625 0
	movl	$2, 4(%esp)
	movl	12(%ebp), %eax
	movl	%eax, (%esp)
	call	getPoint
	movl	%eax, -36(%ebp)
	.loc 1 1626 0
	movl	$3, 4(%esp)
	movl	12(%ebp), %eax
	movl	%eax, (%esp)
	call	getPoint
	movl	%eax, -40(%ebp)
	.loc 1 1628 0
	movl	8(%ebp), %eax
	movl	%eax, 4(%esp)
	movl	$.LC65, (%esp)
	call	getFrameIdx
	movl	%eax, -12(%ebp)
	.loc 1 1629 0
	movl	-16(%ebp), %edx
	movl	-16(%ebp), %eax
	movl	144(%eax), %eax
	movl	8(%ebp), %ecx
	movl	%ecx, 16(%esp)
	movl	-12(%ebp), %ecx
	movl	%ecx, 12(%esp)
	movl	%edx, 8(%esp)
	movl	%eax, 4(%esp)
	leal	-68(%ebp), %eax
	movl	%eax, (%esp)
	call	convertToFrame
	.loc 1 1630 0
	movl	-20(%ebp), %edx
	movl	-20(%ebp), %eax
	movl	144(%eax), %eax
	movl	8(%ebp), %ecx
	movl	%ecx, 16(%esp)
	movl	-12(%ebp), %ecx
	movl	%ecx, 12(%esp)
	movl	%edx, 8(%esp)
	movl	%eax, 4(%esp)
	leal	-92(%ebp), %eax
	movl	%eax, (%esp)
	call	convertToFrame
	.loc 1 1631 0
	movl	-24(%ebp), %edx
	movl	-24(%ebp), %eax
	movl	144(%eax), %eax
	movl	8(%ebp), %ecx
	movl	%ecx, 16(%esp)
	movl	-12(%ebp), %ecx
	movl	%ecx, 12(%esp)
	movl	%edx, 8(%esp)
	movl	%eax, 4(%esp)
	leal	-116(%ebp), %eax
	movl	%eax, (%esp)
	call	convertToFrame
	.loc 1 1632 0
	movl	-28(%ebp), %edx
	movl	-28(%ebp), %eax
	movl	144(%eax), %eax
	movl	8(%ebp), %ecx
	movl	%ecx, 16(%esp)
	movl	-12(%ebp), %ecx
	movl	%ecx, 12(%esp)
	movl	%edx, 8(%esp)
	movl	%eax, 4(%esp)
	leal	-140(%ebp), %eax
	movl	%eax, (%esp)
	call	convertToFrame
	.loc 1 1633 0
	movl	-32(%ebp), %edx
	movl	-32(%ebp), %eax
	movl	144(%eax), %eax
	movl	8(%ebp), %ecx
	movl	%ecx, 16(%esp)
	movl	-12(%ebp), %ecx
	movl	%ecx, 12(%esp)
	movl	%edx, 8(%esp)
	movl	%eax, 4(%esp)
	leal	-164(%ebp), %eax
	movl	%eax, (%esp)
	call	convertToFrame
	.loc 1 1634 0
	movl	-36(%ebp), %edx
	movl	-36(%ebp), %eax
	movl	144(%eax), %eax
	movl	8(%ebp), %ecx
	movl	%ecx, 16(%esp)
	movl	-12(%ebp), %ecx
	movl	%ecx, 12(%esp)
	movl	%edx, 8(%esp)
	movl	%eax, 4(%esp)
	leal	-188(%ebp), %eax
	movl	%eax, (%esp)
	call	convertToFrame
	.loc 1 1635 0
	movl	-40(%ebp), %edx
	movl	-40(%ebp), %eax
	movl	144(%eax), %eax
	movl	8(%ebp), %ecx
	movl	%ecx, 16(%esp)
	movl	-12(%ebp), %ecx
	movl	%ecx, 12(%esp)
	movl	%edx, 8(%esp)
	movl	%eax, 4(%esp)
	leal	-212(%ebp), %eax
	movl	%eax, (%esp)
	call	convertToFrame
	.loc 1 1636 0
	flds	-92(%ebp)
	flds	-68(%ebp)
	fsubrp	%st, %st(1)
	fstps	-284(%ebp)
	.loc 1 1637 0
	flds	-88(%ebp)
	flds	-64(%ebp)
	fsubrp	%st, %st(1)
	fstps	-280(%ebp)
	.loc 1 1638 0
	flds	-84(%ebp)
	flds	-60(%ebp)
	fsubrp	%st, %st(1)
	fstps	-276(%ebp)
	.loc 1 1639 0
	flds	-76(%ebp)
	flds	-52(%ebp)
	fsubrp	%st, %st(1)
	fstps	-268(%ebp)
	.loc 1 1641 0
	flds	-208(%ebp)
	flds	-184(%ebp)
	fsubrp	%st, %st(1)
	fstps	-304(%ebp)
	.loc 1 1642 0
	flds	-212(%ebp)
	flds	-188(%ebp)
	fsubrp	%st, %st(1)
	fstps	-308(%ebp)
	.loc 1 1643 0
	flds	-204(%ebp)
	flds	-180(%ebp)
	fsubrp	%st, %st(1)
	fstps	-300(%ebp)
	.loc 1 1644 0
	flds	-196(%ebp)
	flds	-172(%ebp)
	fsubrp	%st, %st(1)
	fstps	-292(%ebp)
	.loc 1 1646 0
	movl	$0x00000000, %eax
	movl	%eax, -260(%ebp)
	flds	-284(%ebp)
	fabs
	flds	-308(%ebp)
	fabs
	fucompp
	fnstsw	%ax
	testb	$5, %ah
	sete	%al
	testb	%al, %al
	je	.L339
	movl	$0x3f800000, %eax
	movl	%eax, -260(%ebp)
.L339:
	.loc 1 1647 0
	movl	$0x00000000, %eax
	movl	%eax, -256(%ebp)
	flds	-280(%ebp)
	fabs
	flds	-304(%ebp)
	fabs
	fucompp
	fnstsw	%ax
	testb	$5, %ah
	sete	%al
	testb	%al, %al
	je	.L340
	movl	$0x3f800000, %eax
	movl	%eax, -256(%ebp)
.L340:
	.loc 1 1648 0
	movl	$0x00000000, %eax
	movl	%eax, -252(%ebp)
	flds	-276(%ebp)
	fabs
	flds	-300(%ebp)
	fabs
	fucompp
	fnstsw	%ax
	testb	$5, %ah
	sete	%al
	testb	%al, %al
	je	.L341
	movl	$0x3f800000, %eax
	movl	%eax, -252(%ebp)
.L341:
	.loc 1 1649 0
	movl	$0x00000000, %eax
	movl	%eax, -244(%ebp)
	flds	-268(%ebp)
	fabs
	flds	-292(%ebp)
	fabs
	fucompp
	fnstsw	%ax
	testb	$5, %ah
	sete	%al
	testb	%al, %al
	je	.L342
	movl	$0x3f800000, %eax
	movl	%eax, -244(%ebp)
.L342:
	.loc 1 1653 0
	movl	$0x3ec90fdb, %eax
	movl	%eax, -44(%ebp)
	.loc 1 1655 0
	flds	-260(%ebp)
	fld1
	fxch	%st(1)
	fucompp
	fnstsw	%ax
	sahf
	jne	.L360
	jp	.L360
.L356:
	.loc 1 1657 0
	flds	-44(%ebp)
	flds	.LC9
	fmulp	%st, %st(1)
	fstpl	(%esp)
	call	sin
	fld1
	faddp	%st, %st(1)
	fstps	-396(%ebp)
	flds	-396(%ebp)
	fstps	-332(%ebp)
	.loc 1 1658 0
	flds	-44(%ebp)
	flds	.LC16
	fmulp	%st, %st(1)
	fstpl	(%esp)
	call	sin
	fld1
	faddp	%st, %st(1)
	fstps	-396(%ebp)
	flds	-396(%ebp)
	fstps	-356(%ebp)
	.loc 1 1659 0
	flds	-44(%ebp)
	fstpl	(%esp)
	call	sin
	fld1
	fsubp	%st, %st(1)
	fstps	-396(%ebp)
	flds	-396(%ebp)
	fstps	-380(%ebp)
	jmp	.L345
.L360:
	.loc 1 1663 0
	flds	-44(%ebp)
	fstpl	(%esp)
	call	sin
	fstps	-396(%ebp)
	flds	-396(%ebp)
	fstps	-332(%ebp)
	.loc 1 1664 0
	flds	-44(%ebp)
	fadd	%st(0), %st
	fstpl	(%esp)
	call	sin
	fstps	-396(%ebp)
	flds	-396(%ebp)
	fstps	-356(%ebp)
	.loc 1 1665 0
	flds	-44(%ebp)
	flds	.LC15
	fmulp	%st, %st(1)
	fstpl	(%esp)
	call	sin
	fstps	-396(%ebp)
	flds	-396(%ebp)
	fstps	-380(%ebp)
.L345:
	.loc 1 1668 0
	flds	-256(%ebp)
	fld1
	fxch	%st(1)
	fucompp
	fnstsw	%ax
	sahf
	jne	.L361
	jp	.L361
.L357:
	.loc 1 1670 0
	flds	-44(%ebp)
	flds	.LC9
	fmulp	%st, %st(1)
	fstpl	(%esp)
	call	sin
	fld1
	faddp	%st, %st(1)
	fstps	-396(%ebp)
	flds	-396(%ebp)
	fstps	-328(%ebp)
	.loc 1 1671 0
	flds	-44(%ebp)
	flds	.LC16
	fmulp	%st, %st(1)
	fstpl	(%esp)
	call	sin
	fld1
	faddp	%st, %st(1)
	fstps	-396(%ebp)
	flds	-396(%ebp)
	fstps	-352(%ebp)
	.loc 1 1672 0
	flds	-44(%ebp)
	fstpl	(%esp)
	call	sin
	fld1
	fsubp	%st, %st(1)
	fstps	-396(%ebp)
	flds	-396(%ebp)
	fstps	-376(%ebp)
	jmp	.L348
.L361:
	.loc 1 1676 0
	flds	-44(%ebp)
	fstpl	(%esp)
	call	sin
	fstps	-396(%ebp)
	flds	-396(%ebp)
	fstps	-328(%ebp)
	.loc 1 1677 0
	flds	-44(%ebp)
	fadd	%st(0), %st
	fstpl	(%esp)
	call	sin
	fstps	-396(%ebp)
	flds	-396(%ebp)
	fstps	-352(%ebp)
	.loc 1 1678 0
	flds	-44(%ebp)
	flds	.LC15
	fmulp	%st, %st(1)
	fstpl	(%esp)
	call	sin
	fstps	-396(%ebp)
	flds	-396(%ebp)
	fstps	-376(%ebp)
.L348:
	.loc 1 1682 0
	flds	-252(%ebp)
	fld1
	fxch	%st(1)
	fucompp
	fnstsw	%ax
	sahf
	jne	.L362
	jp	.L362
.L358:
	.loc 1 1684 0
	flds	-44(%ebp)
	flds	.LC9
	fmulp	%st, %st(1)
	fstpl	(%esp)
	call	sin
	fld1
	faddp	%st, %st(1)
	fstps	-396(%ebp)
	flds	-396(%ebp)
	fstps	-324(%ebp)
	.loc 1 1685 0
	flds	-44(%ebp)
	flds	.LC16
	fmulp	%st, %st(1)
	fstpl	(%esp)
	call	sin
	fld1
	faddp	%st, %st(1)
	fstps	-396(%ebp)
	flds	-396(%ebp)
	fstps	-348(%ebp)
	.loc 1 1686 0
	flds	-44(%ebp)
	fstpl	(%esp)
	call	sin
	fld1
	fsubp	%st, %st(1)
	fstps	-396(%ebp)
	flds	-396(%ebp)
	fstps	-372(%ebp)
	jmp	.L351
.L362:
	.loc 1 1690 0
	flds	-44(%ebp)
	fstpl	(%esp)
	call	sin
	fstps	-396(%ebp)
	flds	-396(%ebp)
	fstps	-324(%ebp)
	.loc 1 1691 0
	flds	-44(%ebp)
	fadd	%st(0), %st
	fstpl	(%esp)
	call	sin
	fstps	-396(%ebp)
	flds	-396(%ebp)
	fstps	-348(%ebp)
	.loc 1 1692 0
	flds	-44(%ebp)
	flds	.LC15
	fmulp	%st, %st(1)
	fstpl	(%esp)
	call	sin
	fstps	-396(%ebp)
	flds	-396(%ebp)
	fstps	-372(%ebp)
.L351:
	.loc 1 1695 0
	flds	-244(%ebp)
	fld1
	fxch	%st(1)
	fucompp
	fnstsw	%ax
	sahf
	jne	.L363
	jp	.L363
.L359:
	.loc 1 1697 0
	flds	-44(%ebp)
	flds	.LC9
	fmulp	%st, %st(1)
	fstpl	(%esp)
	call	sin
	fld1
	faddp	%st, %st(1)
	fstps	-396(%ebp)
	flds	-396(%ebp)
	fstps	-316(%ebp)
	.loc 1 1698 0
	flds	-44(%ebp)
	flds	.LC16
	fmulp	%st, %st(1)
	fstpl	(%esp)
	call	sin
	fld1
	faddp	%st, %st(1)
	fstps	-396(%ebp)
	flds	-396(%ebp)
	fstps	-340(%ebp)
	.loc 1 1699 0
	flds	-44(%ebp)
	fstpl	(%esp)
	call	sin
	fld1
	fsubp	%st, %st(1)
	fstps	-396(%ebp)
	flds	-396(%ebp)
	fstps	-364(%ebp)
	jmp	.L354
.L363:
	.loc 1 1703 0
	flds	-44(%ebp)
	fstpl	(%esp)
	call	sin
	fstps	-396(%ebp)
	flds	-396(%ebp)
	fstps	-316(%ebp)
	.loc 1 1704 0
	flds	-44(%ebp)
	fadd	%st(0), %st
	fstpl	(%esp)
	call	sin
	fstps	-396(%ebp)
	flds	-396(%ebp)
	fstps	-340(%ebp)
	.loc 1 1705 0
	flds	-44(%ebp)
	flds	.LC15
	fmulp	%st, %st(1)
	fstpl	(%esp)
	call	sin
	fstps	-396(%ebp)
	flds	-396(%ebp)
	fstps	-364(%ebp)
.L354:
	.loc 1 1708 0
	flds	-188(%ebp)
	flds	-92(%ebp)
	fsubrp	%st, %st(1)
	fstps	-236(%ebp)
	.loc 1 1709 0
	flds	-184(%ebp)
	flds	-88(%ebp)
	fsubrp	%st, %st(1)
	fstps	-232(%ebp)
	.loc 1 1710 0
	flds	-180(%ebp)
	flds	-84(%ebp)
	fsubrp	%st, %st(1)
	fstps	-228(%ebp)
	.loc 1 1711 0
	flds	-172(%ebp)
	flds	-76(%ebp)
	fsubrp	%st, %st(1)
	fstps	-220(%ebp)
	.loc 1 1713 0
	flds	-92(%ebp)
	flds	-332(%ebp)
	flds	-236(%ebp)
	fmulp	%st, %st(1)
	faddp	%st, %st(1)
	movl	-24(%ebp), %eax
	movl	144(%eax), %eax
	movl	8(%ebp), %edx
	imull	$280, %eax, %eax
	leal	(%edx,%eax), %eax
	addl	$2592, %eax
	flds	(%eax)
	fsubrp	%st, %st(1)
	movl	-24(%ebp), %eax
	fstps	12(%eax)
	.loc 1 1714 0
	flds	-92(%ebp)
	flds	-356(%ebp)
	flds	-236(%ebp)
	fmulp	%st, %st(1)
	faddp	%st, %st(1)
	movl	-28(%ebp), %eax
	movl	144(%eax), %eax
	movl	8(%ebp), %edx
	imull	$280, %eax, %eax
	leal	(%edx,%eax), %eax
	addl	$2592, %eax
	flds	(%eax)
	fsubrp	%st, %st(1)
	movl	-28(%ebp), %eax
	fstps	12(%eax)
	.loc 1 1715 0
	flds	-92(%ebp)
	flds	-380(%ebp)
	flds	-236(%ebp)
	fmulp	%st, %st(1)
	faddp	%st, %st(1)
	movl	-32(%ebp), %eax
	movl	144(%eax), %eax
	movl	8(%ebp), %edx
	imull	$280, %eax, %eax
	leal	(%edx,%eax), %eax
	addl	$2592, %eax
	flds	(%eax)
	fsubrp	%st, %st(1)
	movl	-32(%ebp), %eax
	fstps	12(%eax)
	.loc 1 1717 0
	flds	-88(%ebp)
	flds	-328(%ebp)
	flds	-232(%ebp)
	fmulp	%st, %st(1)
	faddp	%st, %st(1)
	movl	-24(%ebp), %eax
	movl	144(%eax), %eax
	movl	8(%ebp), %edx
	imull	$280, %eax, %eax
	leal	(%edx,%eax), %eax
	addl	$2596, %eax
	flds	(%eax)
	fsubrp	%st, %st(1)
	movl	-24(%ebp), %eax
	fstps	16(%eax)
	.loc 1 1718 0
	flds	-88(%ebp)
	flds	-352(%ebp)
	flds	-232(%ebp)
	fmulp	%st, %st(1)
	faddp	%st, %st(1)
	movl	-28(%ebp), %eax
	movl	144(%eax), %eax
	movl	8(%ebp), %edx
	imull	$280, %eax, %eax
	leal	(%edx,%eax), %eax
	addl	$2596, %eax
	flds	(%eax)
	fsubrp	%st, %st(1)
	movl	-28(%ebp), %eax
	fstps	16(%eax)
	.loc 1 1719 0
	flds	-88(%ebp)
	flds	-376(%ebp)
	flds	-232(%ebp)
	fmulp	%st, %st(1)
	faddp	%st, %st(1)
	movl	-32(%ebp), %eax
	movl	144(%eax), %eax
	movl	8(%ebp), %edx
	imull	$280, %eax, %eax
	leal	(%edx,%eax), %eax
	addl	$2596, %eax
	flds	(%eax)
	fsubrp	%st, %st(1)
	movl	-32(%ebp), %eax
	fstps	16(%eax)
	.loc 1 1721 0
	flds	-84(%ebp)
	flds	-324(%ebp)
	flds	-228(%ebp)
	fmulp	%st, %st(1)
	faddp	%st, %st(1)
	movl	-24(%ebp), %eax
	movl	144(%eax), %eax
	movl	8(%ebp), %edx
	imull	$280, %eax, %eax
	leal	(%edx,%eax), %eax
	addl	$2600, %eax
	flds	(%eax)
	fsubrp	%st, %st(1)
	movl	-24(%ebp), %eax
	fstps	20(%eax)
	.loc 1 1722 0
	flds	-84(%ebp)
	flds	-348(%ebp)
	flds	-228(%ebp)
	fmulp	%st, %st(1)
	faddp	%st, %st(1)
	movl	-28(%ebp), %eax
	movl	144(%eax), %eax
	movl	8(%ebp), %edx
	imull	$280, %eax, %eax
	leal	(%edx,%eax), %eax
	addl	$2600, %eax
	flds	(%eax)
	fsubrp	%st, %st(1)
	movl	-28(%ebp), %eax
	fstps	20(%eax)
	.loc 1 1723 0
	flds	-84(%ebp)
	flds	-372(%ebp)
	flds	-228(%ebp)
	fmulp	%st, %st(1)
	faddp	%st, %st(1)
	movl	-32(%ebp), %eax
	movl	144(%eax), %eax
	movl	8(%ebp), %edx
	imull	$280, %eax, %eax
	leal	(%edx,%eax), %eax
	addl	$2600, %eax
	flds	(%eax)
	fsubrp	%st, %st(1)
	movl	-32(%ebp), %eax
	fstps	20(%eax)
	.loc 1 1725 0
	flds	-76(%ebp)
	flds	-316(%ebp)
	flds	-220(%ebp)
	fmulp	%st, %st(1)
	faddp	%st, %st(1)
	movl	-24(%ebp), %eax
	movl	144(%eax), %eax
	movl	8(%ebp), %edx
	imull	$280, %eax, %eax
	leal	(%edx,%eax), %eax
	addl	$2608, %eax
	flds	(%eax)
	fsubrp	%st, %st(1)
	movl	-24(%ebp), %eax
	fstps	28(%eax)
	.loc 1 1726 0
	flds	-76(%ebp)
	flds	-340(%ebp)
	flds	-220(%ebp)
	fmulp	%st, %st(1)
	faddp	%st, %st(1)
	movl	-28(%ebp), %eax
	movl	144(%eax), %eax
	movl	8(%ebp), %edx
	imull	$280, %eax, %eax
	leal	(%edx,%eax), %eax
	addl	$2608, %eax
	flds	(%eax)
	fsubrp	%st, %st(1)
	movl	-28(%ebp), %eax
	fstps	28(%eax)
	.loc 1 1727 0
	flds	-76(%ebp)
	flds	-364(%ebp)
	flds	-220(%ebp)
	fmulp	%st, %st(1)
	faddp	%st, %st(1)
	movl	-32(%ebp), %eax
	movl	144(%eax), %eax
	movl	8(%ebp), %edx
	imull	$280, %eax, %eax
	leal	(%edx,%eax), %eax
	addl	$2608, %eax
	flds	(%eax)
	fsubrp	%st, %st(1)
	movl	-32(%ebp), %eax
	fstps	28(%eax)
.LBE45:
	.loc 1 1728 0
	leave
	ret
	.cfi_endproc
.LFE35:
	.size	blendCorner3, .-blendCorner3
.globl seekCorner
	.type	seekCorner, @function
seekCorner:
.LFB36:
	.loc 1 1731 0
	.cfi_startproc
	.cfi_personality 0x0,__gxx_personality_v0
	pushl	%ebp
.LCFI54:
	.cfi_def_cfa_offset 8
	movl	%esp, %ebp
	.cfi_offset 5, -8
.LCFI55:
	.cfi_def_cfa_register 5
	subl	$56, %esp
	call	mcount
	.loc 1 1731 0
.LBB46:
	.loc 1 1733 0
	movl	$-1, 4(%esp)
	movl	12(%ebp), %eax
	movl	%eax, (%esp)
	call	getPoint
	movl	%eax, -12(%ebp)
	.loc 1 1734 0
	movl	-12(%ebp), %eax
	flds	20(%eax)
	flds	20(%ebp)
	fldl	.LC17
	fmulp	%st, %st(1)
	faddp	%st, %st(1)
	fstps	-28(%ebp)
	flds	-28(%ebp)
	movl	-12(%ebp), %eax
	fstps	20(%eax)
	.loc 1 1735 0
	movl	$-2, 4(%esp)
	movl	12(%ebp), %eax
	movl	%eax, (%esp)
	call	getPoint
	movl	%eax, -12(%ebp)
	.loc 1 1736 0
	movl	-12(%ebp), %eax
	flds	20(%eax)
	fadds	20(%ebp)
	movl	-12(%ebp), %eax
	fstps	20(%eax)
	.loc 1 1737 0
	movl	$-3, 4(%esp)
	movl	12(%ebp), %eax
	movl	%eax, (%esp)
	call	getPoint
	movl	%eax, -12(%ebp)
	.loc 1 1738 0
	movl	-12(%ebp), %eax
	flds	12(%eax)
	flds	16(%ebp)
	fldl	.LC17
	fmulp	%st, %st(1)
	faddp	%st, %st(1)
	fstps	-28(%ebp)
	flds	-28(%ebp)
	movl	-12(%ebp), %eax
	fstps	12(%eax)
	.loc 1 1739 0
	movl	-12(%ebp), %eax
	flds	20(%eax)
	fadds	20(%ebp)
	movl	-12(%ebp), %eax
	fstps	20(%eax)
	.loc 1 1740 0
	movl	$-4, 4(%esp)
	movl	12(%ebp), %eax
	movl	%eax, (%esp)
	call	getPoint
	movl	%eax, -12(%ebp)
	.loc 1 1741 0
	movl	-12(%ebp), %eax
	flds	12(%eax)
	fadds	16(%ebp)
	movl	-12(%ebp), %eax
	fstps	12(%eax)
	.loc 1 1742 0
	movl	-12(%ebp), %eax
	flds	20(%eax)
	fadds	20(%ebp)
	movl	-12(%ebp), %eax
	fstps	20(%eax)
	.loc 1 1743 0
	movl	$-5, 4(%esp)
	movl	12(%ebp), %eax
	movl	%eax, (%esp)
	call	getPoint
	movl	%eax, -12(%ebp)
	.loc 1 1744 0
	movl	-12(%ebp), %eax
	flds	20(%eax)
	flds	20(%ebp)
	fldl	.LC17
	fmulp	%st, %st(1)
	faddp	%st, %st(1)
	fstps	-28(%ebp)
	flds	-28(%ebp)
	movl	-12(%ebp), %eax
	fstps	20(%eax)
	.loc 1 1745 0
	movl	-12(%ebp), %eax
	flds	12(%eax)
	fadds	16(%ebp)
	movl	-12(%ebp), %eax
	fstps	12(%eax)
	.loc 1 1746 0
	movl	$-6, 4(%esp)
	movl	12(%ebp), %eax
	movl	%eax, (%esp)
	call	getPoint
	movl	%eax, -12(%ebp)
	.loc 1 1747 0
	movl	-12(%ebp), %eax
	flds	12(%eax)
	fadds	16(%ebp)
	movl	-12(%ebp), %eax
	fstps	12(%eax)
	.loc 1 1748 0
	movl	$-7, 4(%esp)
	movl	12(%ebp), %eax
	movl	%eax, (%esp)
	call	getPoint
	movl	%eax, -12(%ebp)
	.loc 1 1749 0
	movl	-12(%ebp), %eax
	flds	12(%eax)
	fadds	16(%ebp)
	movl	-12(%ebp), %eax
	fstps	12(%eax)
	.loc 1 1750 0
	movl	-12(%ebp), %eax
	flds	20(%eax)
	flds	20(%ebp)
	fldl	.LC67
	fmulp	%st, %st(1)
	faddp	%st, %st(1)
	fstps	-28(%ebp)
	flds	-28(%ebp)
	movl	-12(%ebp), %eax
	fstps	20(%eax)
	.loc 1 1751 0
	movl	$-8, 4(%esp)
	movl	12(%ebp), %eax
	movl	%eax, (%esp)
	call	getPoint
	movl	%eax, -12(%ebp)
	.loc 1 1752 0
	movl	-12(%ebp), %eax
	flds	12(%eax)
	fadds	16(%ebp)
	movl	-12(%ebp), %eax
	fstps	12(%eax)
	.loc 1 1753 0
	movl	-12(%ebp), %eax
	flds	20(%eax)
	fsubs	20(%ebp)
	movl	-12(%ebp), %eax
	fstps	20(%eax)
	.loc 1 1754 0
	movl	$-9, 4(%esp)
	movl	12(%ebp), %eax
	movl	%eax, (%esp)
	call	getPoint
	movl	%eax, -12(%ebp)
	.loc 1 1755 0
	movl	-12(%ebp), %eax
	flds	12(%eax)
	flds	16(%ebp)
	fldl	.LC17
	fmulp	%st, %st(1)
	faddp	%st, %st(1)
	fstps	-28(%ebp)
	flds	-28(%ebp)
	movl	-12(%ebp), %eax
	fstps	12(%eax)
	.loc 1 1756 0
	movl	-12(%ebp), %eax
	flds	20(%eax)
	fsubs	20(%ebp)
	movl	-12(%ebp), %eax
	fstps	20(%eax)
	.loc 1 1757 0
	movl	$-10, 4(%esp)
	movl	12(%ebp), %eax
	movl	%eax, (%esp)
	call	getPoint
	movl	%eax, -12(%ebp)
	.loc 1 1758 0
	movl	-12(%ebp), %eax
	flds	20(%eax)
	fsubs	20(%ebp)
	movl	-12(%ebp), %eax
	fstps	20(%eax)
	.loc 1 1759 0
	movl	$-11, 4(%esp)
	movl	12(%ebp), %eax
	movl	%eax, (%esp)
	call	getPoint
	movl	%eax, -12(%ebp)
	.loc 1 1760 0
	movl	-12(%ebp), %eax
	flds	12(%eax)
	flds	16(%ebp)
	fldl	.LC67
	fmulp	%st, %st(1)
	faddp	%st, %st(1)
	fstps	-28(%ebp)
	flds	-28(%ebp)
	movl	-12(%ebp), %eax
	fstps	12(%eax)
	.loc 1 1761 0
	movl	-12(%ebp), %eax
	flds	20(%eax)
	fsubs	20(%ebp)
	movl	-12(%ebp), %eax
	fstps	20(%eax)
	.loc 1 1762 0
	movl	$-12, 4(%esp)
	movl	12(%ebp), %eax
	movl	%eax, (%esp)
	call	getPoint
	movl	%eax, -12(%ebp)
	.loc 1 1763 0
	movl	-12(%ebp), %eax
	flds	12(%eax)
	fsubs	16(%ebp)
	movl	-12(%ebp), %eax
	fstps	12(%eax)
	.loc 1 1764 0
	movl	-12(%ebp), %eax
	flds	20(%eax)
	fsubs	20(%ebp)
	movl	-12(%ebp), %eax
	fstps	20(%eax)
	.loc 1 1765 0
	movl	$-13, 4(%esp)
	movl	12(%ebp), %eax
	movl	%eax, (%esp)
	call	getPoint
	movl	%eax, -12(%ebp)
	.loc 1 1766 0
	movl	-12(%ebp), %eax
	flds	12(%eax)
	fsubs	16(%ebp)
	movl	-12(%ebp), %eax
	fstps	12(%eax)
	.loc 1 1767 0
	movl	-12(%ebp), %eax
	flds	20(%eax)
	flds	20(%ebp)
	fldl	.LC67
	fmulp	%st, %st(1)
	faddp	%st, %st(1)
	fstps	-28(%ebp)
	flds	-28(%ebp)
	movl	-12(%ebp), %eax
	fstps	20(%eax)
	.loc 1 1768 0
	movl	$-14, 4(%esp)
	movl	12(%ebp), %eax
	movl	%eax, (%esp)
	call	getPoint
	movl	%eax, -12(%ebp)
	.loc 1 1769 0
	movl	-12(%ebp), %eax
	flds	12(%eax)
	fsubs	16(%ebp)
	movl	-12(%ebp), %eax
	fstps	12(%eax)
	.loc 1 1770 0
	movl	$-15, 4(%esp)
	movl	12(%ebp), %eax
	movl	%eax, (%esp)
	call	getPoint
	movl	%eax, -12(%ebp)
	.loc 1 1771 0
	movl	-12(%ebp), %eax
	flds	12(%eax)
	fsubs	16(%ebp)
	movl	-12(%ebp), %eax
	fstps	12(%eax)
	.loc 1 1772 0
	movl	-12(%ebp), %eax
	flds	20(%eax)
	flds	20(%ebp)
	fldl	.LC17
	fmulp	%st, %st(1)
	faddp	%st, %st(1)
	fstps	-28(%ebp)
	flds	-28(%ebp)
	movl	-12(%ebp), %eax
	fstps	20(%eax)
	.loc 1 1773 0
	movl	$-16, 4(%esp)
	movl	12(%ebp), %eax
	movl	%eax, (%esp)
	call	getPoint
	movl	%eax, -12(%ebp)
	.loc 1 1774 0
	movl	-12(%ebp), %eax
	flds	12(%eax)
	fsubs	16(%ebp)
	movl	-12(%ebp), %eax
	fstps	12(%eax)
	.loc 1 1775 0
	movl	-12(%ebp), %eax
	flds	20(%eax)
	fadds	20(%ebp)
	movl	-12(%ebp), %eax
	fstps	20(%eax)
	.loc 1 1776 0
	movl	$-17, 4(%esp)
	movl	12(%ebp), %eax
	movl	%eax, (%esp)
	call	getPoint
	movl	%eax, -12(%ebp)
	.loc 1 1777 0
	movl	-12(%ebp), %eax
	flds	12(%eax)
	flds	16(%ebp)
	fldl	.LC67
	fmulp	%st, %st(1)
	faddp	%st, %st(1)
	fstps	-28(%ebp)
	flds	-28(%ebp)
	movl	-12(%ebp), %eax
	fstps	12(%eax)
	.loc 1 1778 0
	movl	-12(%ebp), %eax
	flds	20(%eax)
	fadds	20(%ebp)
	movl	-12(%ebp), %eax
	fstps	20(%eax)
	.loc 1 1779 0
	movl	$-18, 4(%esp)
	movl	12(%ebp), %eax
	movl	%eax, (%esp)
	call	getPoint
	movl	%eax, -12(%ebp)
	.loc 1 1780 0
	movl	-12(%ebp), %eax
	flds	20(%eax)
	fadds	20(%ebp)
	movl	-12(%ebp), %eax
	fstps	20(%eax)
	.loc 1 1781 0
	movl	$-19, 4(%esp)
	movl	12(%ebp), %eax
	movl	%eax, (%esp)
	call	getPoint
	movl	%eax, -12(%ebp)
	.loc 1 1782 0
	movl	-12(%ebp), %eax
	flds	20(%eax)
	flds	20(%ebp)
	fldl	.LC17
	fmulp	%st, %st(1)
	faddp	%st, %st(1)
	fstps	-28(%ebp)
	flds	-28(%ebp)
	movl	-12(%ebp), %eax
	fstps	20(%eax)
.LBE46:
	.loc 1 1783 0
	leave
	ret
	.cfi_endproc
.LFE36:
	.size	seekCorner, .-seekCorner
.globl seekCornerX
	.type	seekCornerX, @function
seekCornerX:
.LFB37:
	.loc 1 1786 0
	.cfi_startproc
	.cfi_personality 0x0,__gxx_personality_v0
	pushl	%ebp
.LCFI56:
	.cfi_def_cfa_offset 8
	movl	%esp, %ebp
	.cfi_offset 5, -8
.LCFI57:
	.cfi_def_cfa_register 5
	subl	$56, %esp
	call	mcount
	.loc 1 1786 0
.LBB47:
	.loc 1 1789 0
	movl	$-1, 4(%esp)
	movl	12(%ebp), %eax
	movl	%eax, (%esp)
	call	getPoint
	movl	%eax, -12(%ebp)
	.loc 1 1790 0
	movl	-12(%ebp), %eax
	flds	20(%eax)
	flds	16(%ebp)
	fldl	.LC67
	fmulp	%st, %st(1)
	faddp	%st, %st(1)
	fstps	-28(%ebp)
	flds	-28(%ebp)
	movl	-12(%ebp), %eax
	fstps	20(%eax)
	.loc 1 1791 0
	movl	$-2, 4(%esp)
	movl	12(%ebp), %eax
	movl	%eax, (%esp)
	call	getPoint
	movl	%eax, -12(%ebp)
	.loc 1 1792 0
	movl	-12(%ebp), %eax
	flds	20(%eax)
	fsubs	16(%ebp)
	movl	-12(%ebp), %eax
	fstps	20(%eax)
	.loc 1 1793 0
	movl	$-3, 4(%esp)
	movl	12(%ebp), %eax
	movl	%eax, (%esp)
	call	getPoint
	movl	%eax, -12(%ebp)
	.loc 1 1794 0
	movl	-12(%ebp), %eax
	flds	20(%eax)
	flds	16(%ebp)
	fldl	.LC67
	fmulp	%st, %st(1)
	faddp	%st, %st(1)
	fstps	-28(%ebp)
	flds	-28(%ebp)
	movl	-12(%ebp), %eax
	fstps	20(%eax)
	.loc 1 1796 0
	movl	$-5, 4(%esp)
	movl	12(%ebp), %eax
	movl	%eax, (%esp)
	call	getPoint
	movl	%eax, -12(%ebp)
	.loc 1 1797 0
	movl	-12(%ebp), %eax
	flds	20(%eax)
	flds	20(%ebp)
	fldl	.LC17
	fmulp	%st, %st(1)
	faddp	%st, %st(1)
	fstps	-28(%ebp)
	flds	-28(%ebp)
	movl	-12(%ebp), %eax
	fstps	20(%eax)
	.loc 1 1798 0
	movl	$-6, 4(%esp)
	movl	12(%ebp), %eax
	movl	%eax, (%esp)
	call	getPoint
	movl	%eax, -12(%ebp)
	.loc 1 1799 0
	movl	-12(%ebp), %eax
	flds	20(%eax)
	fadds	20(%ebp)
	movl	-12(%ebp), %eax
	fstps	20(%eax)
	.loc 1 1800 0
	movl	$-7, 4(%esp)
	movl	12(%ebp), %eax
	movl	%eax, (%esp)
	call	getPoint
	movl	%eax, -12(%ebp)
	.loc 1 1801 0
	movl	-12(%ebp), %eax
	flds	20(%eax)
	flds	20(%ebp)
	fldl	.LC17
	fmulp	%st, %st(1)
	faddp	%st, %st(1)
	fstps	-28(%ebp)
	flds	-28(%ebp)
	movl	-12(%ebp), %eax
	fstps	20(%eax)
	.loc 1 1803 0
	movl	$-9, 4(%esp)
	movl	12(%ebp), %eax
	movl	%eax, (%esp)
	call	getPoint
	movl	%eax, -12(%ebp)
	.loc 1 1804 0
	movl	-12(%ebp), %eax
	flds	12(%eax)
	flds	24(%ebp)
	fldl	.LC67
	fmulp	%st, %st(1)
	faddp	%st, %st(1)
	fstps	-28(%ebp)
	flds	-28(%ebp)
	movl	-12(%ebp), %eax
	fstps	12(%eax)
	.loc 1 1805 0
	movl	$-10, 4(%esp)
	movl	12(%ebp), %eax
	movl	%eax, (%esp)
	call	getPoint
	movl	%eax, -12(%ebp)
	.loc 1 1806 0
	movl	-12(%ebp), %eax
	flds	12(%eax)
	fsubs	24(%ebp)
	movl	-12(%ebp), %eax
	fstps	12(%eax)
	.loc 1 1807 0
	movl	$-11, 4(%esp)
	movl	12(%ebp), %eax
	movl	%eax, (%esp)
	call	getPoint
	movl	%eax, -12(%ebp)
	.loc 1 1808 0
	movl	-12(%ebp), %eax
	flds	12(%eax)
	flds	24(%ebp)
	fldl	.LC67
	fmulp	%st, %st(1)
	faddp	%st, %st(1)
	fstps	-28(%ebp)
	flds	-28(%ebp)
	movl	-12(%ebp), %eax
	fstps	12(%eax)
	.loc 1 1810 0
	movl	$-13, 4(%esp)
	movl	12(%ebp), %eax
	movl	%eax, (%esp)
	call	getPoint
