	.file	"rs306.c"
	.text
.Ltext0:
	.cfi_sections	.debug_frame
	.comm	initrobot,4,4
	.comm	trobot,4,4
	.comm	tworkcell,4,4
	.comm	tplant,4,4
	.comm	newtau,4,4
	.section	.rodata
.LC1:
	.string	"home"
.LC3:
	.string	"COUNTER delaystop = 1"
	.align 4
.LC4:
	.string	"PATH pick-%s-%d id=%d,type=%d,time=%d,loadgroup=%d"
	.align 4
.LC5:
	.string	"POINT home 0,0,0,90,90,0,10 case"
.LC7:
	.string	"case"
.LC9:
	.string	"END"
	.align 4
.LC11:
	.string	"PATH place-%s-%d id=%d,type=%d,time=%d,loadgroup=%d"
.LC13:
	.string	"POSITIONHINT 1"
.LC14:
	.string	"COUNTER cAItems += 1"
	.text
.globl expandSubPathKatrineIn
	.type	expandSubPathKatrineIn, @function
expandSubPathKatrineIn:
.LFB0:
	.file 1 "rs306.c"
	.loc 1 19 0
	.cfi_startproc
	pushl	%ebp
.LCFI0:
	.cfi_def_cfa_offset 8
	movl	%esp, %ebp
	.cfi_offset 5, -8
.LCFI1:
	.cfi_def_cfa_register 5
	pushl	%edi
	pushl	%esi
	pushl	%ebx
	subl	$668, %esp
	call	mcount
	movl	8(%ebp), %eax
	movl	%eax, -412(%ebp)
	movl	12(%ebp), %eax
	movl	%eax, -416(%ebp)
	movl	16(%ebp), %eax
	movl	%eax, -420(%ebp)
	movl	24(%ebp), %eax
	movl	%eax, -424(%ebp)
	.loc 1 19 0
	movl	%gs:20, %eax
	movl	%eax, -28(%ebp)
	xorl	%eax, %eax
	.loc 1 25 0
	movl	$0x435c0000, %eax
	movl	%eax, -312(%ebp)
	.loc 1 28 0
	movl	tworkcell, %eax
	movl	%eax, 4(%esp)
	movl	-424(%ebp), %eax
	movl	%eax, (%esp)
	.cfi_offset 3, -20
	.cfi_offset 6, -16
	.cfi_offset 7, -12
	call	getPPScript
	movl	%eax, -292(%ebp)
	.loc 1 30 0
	movl	-292(%ebp), %eax
	leal	272(%eax), %edx
	movl	20(%ebp), %eax
	sall	$5, %eax
	movl	%eax, %ecx
	sall	$5, %ecx
	addl	%ecx, %eax
	leal	(%edx,%eax), %eax
	movl	%eax, -288(%ebp)
	.loc 1 31 0
	movl	-412(%ebp), %eax
	leal	2336(%eax), %ebx
	movl	-288(%ebp), %eax
	leal	512(%eax), %edx
	movl	-412(%ebp), %eax
	movl	%eax, 4(%esp)
	movl	%edx, (%esp)
	call	getFrameIdx
	imull	$280, %eax, %eax
	leal	(%ebx,%eax), %eax
	movl	%eax, -300(%ebp)
	.loc 1 32 0
	movl	-412(%ebp), %eax
	leal	2336(%eax), %ebx
	movl	-288(%ebp), %eax
	leal	768(%eax), %edx
	movl	-412(%ebp), %eax
	movl	%eax, 4(%esp)
	movl	%edx, (%esp)
	call	getFrameIdx
	imull	$280, %eax, %eax
	leal	(%ebx,%eax), %eax
	movl	%eax, -296(%ebp)
	.loc 1 33 0
	movl	-412(%ebp), %eax
	leal	2336(%eax), %ebx
	movl	-412(%ebp), %eax
	movl	%eax, 4(%esp)
	movl	$.LC1, (%esp)
	call	getFrameIdx
	imull	$280, %eax, %eax
	leal	(%ebx,%eax), %eax
	movl	%eax, -304(%ebp)
	.loc 1 38 0
	movl	$1200, -308(%ebp)
	.loc 1 39 0
	movl	-304(%ebp), %eax
	flds	260(%eax)
	movl	-300(%ebp), %eax
	flds	260(%eax)
	fsubrp	%st, %st(1)
	movl	-288(%ebp), %eax
	flds	1036(%eax)
	fsubrp	%st, %st(1)
	fabs
	fstps	-320(%ebp)
	.loc 1 40 0
	fildl	-308(%ebp)
	flds	-320(%ebp)
	fldl	.LC2
	fmulp	%st, %st(1)
	faddp	%st, %st(1)
	fnstcw	-426(%ebp)
	movzwl	-426(%ebp), %eax
	movb	$12, %ah
	movw	%ax, -428(%ebp)
	fldcw	-428(%ebp)
	fistpl	-308(%ebp)
	fldcw	-426(%ebp)
	.loc 1 41 0
	movl	-304(%ebp), %eax
	flds	264(%eax)
	movl	-300(%ebp), %eax
	flds	264(%eax)
	fsubrp	%st, %st(1)
	fabs
	fstps	-320(%ebp)
	.loc 1 42 0
	fildl	-308(%ebp)
	flds	-320(%ebp)
	fldl	.LC2
	fmulp	%st, %st(1)
	faddp	%st, %st(1)
	fldcw	-428(%ebp)
	fistpl	-308(%ebp)
	fldcw	-426(%ebp)
	.loc 1 43 0
	movl	-420(%ebp), %eax
	movl	%eax, 8(%esp)
	movl	$.LC3, 4(%esp)
	movl	-416(%ebp), %eax
	movl	%eax, (%esp)
	call	addCommandString
	movl	%eax, -416(%ebp)
	.loc 1 44 0
	movl	-288(%ebp), %eax
	movl	1028(%eax), %ecx
	movl	-288(%ebp), %eax
	movl	1028(%eax), %edx
	movl	-288(%ebp), %eax
	leal	512(%eax), %esi
	movl	$.LC4, %eax
	movl	28(%ebp), %ebx
	movl	%ebx, 28(%esp)
	movl	-308(%ebp), %ebx
	movl	%ebx, 24(%esp)
	movl	$20, 20(%esp)
	movl	%ecx, 16(%esp)
	movl	%edx, 12(%esp)
	movl	%esi, 8(%esp)
	movl	%eax, 4(%esp)
	leal	-284(%ebp), %eax
	movl	%eax, (%esp)
	call	sprintf
	.loc 1 45 0
	movl	-420(%ebp), %eax
	movl	%eax, 8(%esp)
	leal	-284(%ebp), %eax
	movl	%eax, 4(%esp)
	movl	-416(%ebp), %eax
	movl	%eax, (%esp)
	call	addCommandString
	movl	%eax, -416(%ebp)
	.loc 1 47 0
	movl	-420(%ebp), %eax
	movl	%eax, 8(%esp)
	movl	$.LC5, 4(%esp)
	movl	-416(%ebp), %eax
	movl	%eax, (%esp)
	call	addCommandString
	movl	%eax, -416(%ebp)
	.loc 1 48 0
	movl	-420(%ebp), %eax
	movl	%eax, 8(%esp)
	movl	$.LC5, 4(%esp)
	movl	-416(%ebp), %eax
	movl	%eax, (%esp)
	call	addCommandString
	movl	%eax, -416(%ebp)
	.loc 1 49 0
	movl	-420(%ebp), %eax
	movl	%eax, 8(%esp)
	movl	$.LC5, 4(%esp)
	movl	-416(%ebp), %eax
	movl	%eax, (%esp)
	call	addCommandString
	movl	%eax, -416(%ebp)
	.loc 1 50 0
	movl	-420(%ebp), %eax
	movl	%eax, 8(%esp)
	movl	$.LC5, 4(%esp)
	movl	-416(%ebp), %eax
	movl	%eax, (%esp)
	call	addCommandString
	movl	%eax, -416(%ebp)
	movl	-416(%ebp), %eax
	movl	%eax, -316(%ebp)
	.loc 1 53 0
	movl	-288(%ebp), %eax
	flds	1036(%eax)
	movl	-300(%ebp), %eax
	flds	260(%eax)
	faddp	%st, %st(1)
	fadds	-312(%ebp)
	movl	-304(%ebp), %eax
	flds	260(%eax)
	fsubrp	%st, %st(1)
	fldz
	fucompp
	fnstsw	%ax
	testb	$5, %ah
	sete	%al
	.loc 1 52 0
	testb	%al, %al
	je	.L2
	fldz
	jmp	.L3
.L2:
	.loc 1 53 0
	movl	-288(%ebp), %eax
	flds	1036(%eax)
	movl	-300(%ebp), %eax
	flds	260(%eax)
	faddp	%st, %st(1)
	fadds	-312(%ebp)
	movl	-304(%ebp), %eax
	flds	260(%eax)
	.loc 1 52 0
	fsubrp	%st, %st(1)
.L3:
	movl	$1, 80(%esp)
	movl	$.LC7, 76(%esp)
	movl	$.LC1, 72(%esp)
	movl	-420(%ebp), %eax
	movl	%eax, 68(%esp)
	movl	$-1, 64(%esp)
	movl	-412(%ebp), %eax
	movl	%eax, 60(%esp)
	movl	$.LC1, 56(%esp)
	movl	$0x00000000, %eax
	movl	%eax, 52(%esp)
	movl	$0x42b40000, %eax
	movl	%eax, 48(%esp)
	movl	$0x42b40000, %eax
	movl	%eax, 44(%esp)
	movl	$0x00000000, %eax
	movl	%eax, 40(%esp)
	fstps	36(%esp)
	movl	$0x00000000, %eax
	movl	%eax, 32(%esp)
	movl	$.LC1, 28(%esp)
	movl	$0x00000000, %eax
	movl	%eax, 24(%esp)
	movl	$0x42b40000, %eax
	movl	%eax, 20(%esp)
	movl	$0x42b40000, %eax
	movl	%eax, 16(%esp)
	movl	$0x00000000, %eax
	movl	%eax, 12(%esp)
	movl	$0x00000000, %eax
	movl	%eax, 8(%esp)
	movl	$0x00000000, %eax
	movl	%eax, 4(%esp)
	movl	-416(%ebp), %eax
	movl	%eax, (%esp)
	call	convertsplit
	movl	%eax, -416(%ebp)
	movl	-416(%ebp), %eax
	movl	%eax, -400(%ebp)
	.loc 1 56 0
	movl	-288(%ebp), %eax
	addl	$512, %eax
	movl	%eax, -584(%ebp)
	movl	-288(%ebp), %eax
	leal	512(%eax), %edi
	movl	-288(%ebp), %eax
	movl	1048(%eax), %esi
	movl	-288(%ebp), %eax
	movl	1044(%eax), %ebx
	movl	-288(%ebp), %eax
	movl	1040(%eax), %ecx
	.loc 1 58 0
	movl	-304(%ebp), %eax
	flds	260(%eax)
	movl	-300(%ebp), %eax
	flds	260(%eax)
	fsubrp	%st, %st(1)
	movl	-288(%ebp), %eax
	flds	1036(%eax)
	fadds	-312(%ebp)
	fxch	%st(1)
	fucompp
	fnstsw	%ax
	sahf
	setae	%al
	.loc 1 56 0
	testb	%al, %al
	je	.L4
	.loc 1 58 0
	movl	-304(%ebp), %eax
	flds	260(%eax)
	movl	-300(%ebp), %eax
	flds	260(%eax)
	.loc 1 56 0
	fsubrp	%st, %st(1)
	jmp	.L5
.L4:
	.loc 1 58 0
	movl	-288(%ebp), %eax
	flds	1036(%eax)
	.loc 1 56 0
	fadds	-312(%ebp)
.L5:
	movl	-288(%ebp), %eax
	movl	1032(%eax), %edx
	.loc 1 57 0
	movl	-288(%ebp), %eax
	flds	1036(%eax)
	movl	-300(%ebp), %eax
	flds	260(%eax)
	faddp	%st, %st(1)
	fadds	-312(%ebp)
	movl	-304(%ebp), %eax
	flds	260(%eax)
	fsubrp	%st, %st(1)
	fldz
	fucompp
	fnstsw	%ax
	testb	$5, %ah
	sete	%al
	.loc 1 56 0
	testb	%al, %al
	je	.L6
	fldz
	fxch	%st(1)
	jmp	.L7
.L6:
	.loc 1 57 0
	movl	-288(%ebp), %eax
	flds	1036(%eax)
	movl	-300(%ebp), %eax
	flds	260(%eax)
	faddp	%st, %st(1)
	fadds	-312(%ebp)
	movl	-304(%ebp), %eax
	flds	260(%eax)
	.loc 1 56 0
	fsubrp	%st, %st(1)
	fxch	%st(1)
.L7:
	movl	$1, 80(%esp)
	movl	$.LC7, 76(%esp)
	movl	-584(%ebp), %eax
	movl	%eax, 72(%esp)
	movl	-420(%ebp), %eax
	movl	%eax, 68(%esp)
	movl	$-1, 64(%esp)
	movl	-412(%ebp), %eax
	movl	%eax, 60(%esp)
	movl	%edi, 56(%esp)
	movl	$0x00000000, %eax
	movl	%eax, 52(%esp)
	movl	%esi, 48(%esp)
	movl	%ebx, 44(%esp)
	movl	%ecx, 40(%esp)
	fstps	36(%esp)
	movl	%edx, 32(%esp)
	movl	$.LC1, 28(%esp)
	movl	$0x00000000, %eax
	movl	%eax, 24(%esp)
	movl	$0x42b40000, %eax
	movl	%eax, 20(%esp)
	movl	$0x42b40000, %eax
	movl	%eax, 16(%esp)
	movl	$0x00000000, %eax
	movl	%eax, 12(%esp)
	fstps	8(%esp)
	movl	$0x00000000, %eax
	movl	%eax, 4(%esp)
	movl	-416(%ebp), %eax
	movl	%eax, (%esp)
	call	convertsplit
	movl	%eax, -416(%ebp)
	movl	-416(%ebp), %eax
	movl	%eax, -396(%ebp)
	.loc 1 62 0
	movl	-288(%ebp), %eax
	leal	512(%eax), %esi
	movl	-288(%ebp), %eax
	addl	$512, %eax
	movl	%eax, -580(%ebp)
	movl	-288(%ebp), %eax
	movl	1048(%eax), %edx
	movl	%edx, -576(%ebp)
	movl	-288(%ebp), %eax
	movl	1044(%eax), %edx
	movl	%edx, -572(%ebp)
	movl	-288(%ebp), %eax
	movl	1040(%eax), %edx
	movl	%edx, -568(%ebp)
	movl	-288(%ebp), %eax
	movl	1036(%eax), %edx
	movl	%edx, -564(%ebp)
	movl	-288(%ebp), %eax
	movl	1032(%eax), %edx
	movl	%edx, -560(%ebp)
	movl	-288(%ebp), %eax
	addl	$512, %eax
	movl	%eax, -556(%ebp)
	movl	-288(%ebp), %eax
	movl	1048(%eax), %edi
	movl	-288(%ebp), %eax
	movl	1044(%eax), %ebx
	movl	-288(%ebp), %eax
	movl	1040(%eax), %ecx
	movl	-304(%ebp), %eax
	flds	260(%eax)
	movl	-300(%ebp), %eax
	flds	260(%eax)
	fsubrp	%st, %st(1)
	movl	-288(%ebp), %eax
	flds	1036(%eax)
	fadds	-312(%ebp)
	fxch	%st(1)
	fucompp
	fnstsw	%ax
	sahf
	setae	%al
	testb	%al, %al
	je	.L8
	movl	-304(%ebp), %eax
	flds	260(%eax)
	movl	-300(%ebp), %eax
	flds	260(%eax)
	fsubrp	%st, %st(1)
	jmp	.L9
.L8:
	movl	-288(%ebp), %eax
	flds	1036(%eax)
	fadds	-312(%ebp)
.L9:
	movl	-288(%ebp), %eax
	movl	1032(%eax), %edx
	movl	$1, 80(%esp)
	movl	$.LC7, 76(%esp)
	movl	%esi, 72(%esp)
	movl	-420(%ebp), %eax
	movl	%eax, 68(%esp)
	movl	$-1, 64(%esp)
	movl	-412(%ebp), %eax
	movl	%eax, 60(%esp)
	movl	-580(%ebp), %eax
	movl	%eax, 56(%esp)
	movl	$0x00000000, %eax
	movl	%eax, 52(%esp)
	movl	-576(%ebp), %eax
	movl	%eax, 48(%esp)
	movl	-572(%ebp), %eax
	movl	%eax, 44(%esp)
	movl	-568(%ebp), %eax
	movl	%eax, 40(%esp)
	movl	-564(%ebp), %eax
	movl	%eax, 36(%esp)
	movl	-560(%ebp), %eax
	movl	%eax, 32(%esp)
	movl	-556(%ebp), %eax
	movl	%eax, 28(%esp)
	movl	$0x00000000, %eax
	movl	%eax, 24(%esp)
	movl	%edi, 20(%esp)
	movl	%ebx, 16(%esp)
	movl	%ecx, 12(%esp)
	fstps	8(%esp)
	movl	%edx, 4(%esp)
	movl	-416(%ebp), %eax
	movl	%eax, (%esp)
	call	convertsplit
	movl	%eax, -416(%ebp)
	movl	-416(%ebp), %eax
	movl	%eax, -392(%ebp)
	.loc 1 67 0
	movl	-288(%ebp), %eax
	leal	512(%eax), %ebx
	movl	-288(%ebp), %eax
	addl	$512, %eax
	movl	%eax, -552(%ebp)
	movl	-288(%ebp), %eax
	movl	1048(%eax), %edx
	movl	%edx, -548(%ebp)
	movl	-288(%ebp), %eax
	movl	1044(%eax), %edx
	movl	%edx, -544(%ebp)
	movl	-288(%ebp), %eax
	movl	1040(%eax), %edx
	movl	%edx, -540(%ebp)
	movl	-288(%ebp), %eax
	movl	1036(%eax), %edx
	movl	%edx, -536(%ebp)
	movl	-288(%ebp), %eax
	movl	1032(%eax), %edx
	movl	%edx, -532(%ebp)
	movl	-288(%ebp), %eax
	addl	$512, %eax
	movl	%eax, -528(%ebp)
	movl	-288(%ebp), %eax
	movl	1048(%eax), %edx
	movl	%edx, -524(%ebp)
	movl	-288(%ebp), %eax
	movl	1044(%eax), %edi
	movl	-288(%ebp), %eax
	movl	1040(%eax), %esi
	movl	-288(%ebp), %eax
	movl	1036(%eax), %ecx
	movl	-288(%ebp), %eax
	movl	1032(%eax), %edx
	movl	$1, 80(%esp)
	movl	$.LC7, 76(%esp)
	movl	%ebx, 72(%esp)
	movl	-420(%ebp), %eax
	movl	%eax, 68(%esp)
	movl	$3, 64(%esp)
	movl	-412(%ebp), %eax
	movl	%eax, 60(%esp)
	movl	-552(%ebp), %eax
	movl	%eax, 56(%esp)
	movl	$0x00000000, %eax
	movl	%eax, 52(%esp)
	movl	-548(%ebp), %eax
	movl	%eax, 48(%esp)
	movl	-544(%ebp), %eax
	movl	%eax, 44(%esp)
	movl	-540(%ebp), %eax
	movl	%eax, 40(%esp)
	movl	-536(%ebp), %eax
	movl	%eax, 36(%esp)
	movl	-532(%ebp), %eax
	movl	%eax, 32(%esp)
	movl	-528(%ebp), %eax
	movl	%eax, 28(%esp)
	movl	$0x00000000, %eax
	movl	%eax, 24(%esp)
	movl	-524(%ebp), %eax
	movl	%eax, 20(%esp)
	movl	%edi, 16(%esp)
	movl	%esi, 12(%esp)
	movl	%ecx, 8(%esp)
	movl	%edx, 4(%esp)
	movl	-416(%ebp), %eax
	movl	%eax, (%esp)
	call	convertsplit
	movl	%eax, -416(%ebp)
	movl	-416(%ebp), %eax
	movl	%eax, -384(%ebp)
	.loc 1 70 0
	movl	-420(%ebp), %eax
	movl	%eax, 8(%esp)
	movl	$.LC9, 4(%esp)
	movl	-416(%ebp), %eax
	movl	%eax, (%esp)
	call	addCommandString
	movl	%eax, -416(%ebp)
	.loc 1 72 0
	movl	-316(%ebp), %eax
	movl	%eax, 4(%esp)
	movl	-412(%ebp), %eax
	movl	%eax, (%esp)
	call	blendCorner3
	.loc 1 73 0
	movl	-400(%ebp), %eax
	movl	%eax, 4(%esp)
	movl	-412(%ebp), %eax
	movl	%eax, (%esp)
	call	blendCorner3
	.loc 1 74 0
	movl	-396(%ebp), %eax
	movl	%eax, 4(%esp)
	movl	-412(%ebp), %eax
	movl	%eax, (%esp)
	call	blendCorner3
	.loc 1 75 0
	movl	-392(%ebp), %eax
	movl	%eax, 4(%esp)
	movl	-412(%ebp), %eax
	movl	%eax, (%esp)
	call	blendCorner3
	.loc 1 79 0
	movl	$1500, -308(%ebp)
	.loc 1 80 0
	movl	-304(%ebp), %eax
	flds	260(%eax)
	movl	-300(%ebp), %eax
	flds	260(%eax)
	fsubrp	%st, %st(1)
	movl	-288(%ebp), %eax
	flds	1036(%eax)
	fsubrp	%st, %st(1)
	fabs
	fstps	-320(%ebp)
	.loc 1 81 0
	fildl	-308(%ebp)
	flds	-320(%ebp)
	fldl	.LC10
	fmulp	%st, %st(1)
	faddp	%st, %st(1)
	fnstcw	-426(%ebp)
	movzwl	-426(%ebp), %eax
	movb	$12, %ah
	movw	%ax, -428(%ebp)
	fldcw	-428(%ebp)
	fistpl	-308(%ebp)
	fldcw	-426(%ebp)
	.loc 1 82 0
	movl	-296(%ebp), %eax
	flds	264(%eax)
	movl	-300(%ebp), %eax
	flds	264(%eax)
	fsubrp	%st, %st(1)
	fabs
	fstps	-320(%ebp)
	.loc 1 83 0
	fildl	-308(%ebp)
	flds	-320(%ebp)
	fldl	.LC10
	fmulp	%st, %st(1)
	faddp	%st, %st(1)
	fldcw	-428(%ebp)
	fistpl	-308(%ebp)
	fldcw	-426(%ebp)
	.loc 1 85 0
	movl	-288(%ebp), %eax
	movl	1028(%eax), %ecx
	movl	-288(%ebp), %eax
	movl	1028(%eax), %edx
	movl	-288(%ebp), %eax
	leal	768(%eax), %esi
	movl	$.LC11, %eax
	movl	28(%ebp), %ebx
	movl	%ebx, 28(%esp)
	movl	-308(%ebp), %ebx
	movl	%ebx, 24(%esp)
	movl	$21, 20(%esp)
	movl	%ecx, 16(%esp)
	movl	%edx, 12(%esp)
	movl	%esi, 8(%esp)
	movl	%eax, 4(%esp)
	leal	-284(%ebp), %eax
	movl	%eax, (%esp)
	call	sprintf
	.loc 1 86 0
	movl	-420(%ebp), %eax
	movl	%eax, 8(%esp)
	leal	-284(%ebp), %eax
	movl	%eax, 4(%esp)
	movl	-416(%ebp), %eax
	movl	%eax, (%esp)
	call	addCommandString
	movl	%eax, -416(%ebp)
	.loc 1 88 0
	movl	-288(%ebp), %eax
	leal	512(%eax), %ebx
	movl	-288(%ebp), %eax
	addl	$512, %eax
	movl	%eax, -520(%ebp)
	movl	-288(%ebp), %eax
	movl	1048(%eax), %edx
	movl	%edx, -516(%ebp)
	movl	-288(%ebp), %eax
	movl	1044(%eax), %edx
	movl	%edx, -512(%ebp)
	movl	-288(%ebp), %eax
	movl	1040(%eax), %edx
	movl	%edx, -508(%ebp)
	movl	-288(%ebp), %eax
	movl	1036(%eax), %edx
	movl	%edx, -504(%ebp)
	movl	-288(%ebp), %eax
	movl	1032(%eax), %edx
	movl	%edx, -500(%ebp)
	movl	-288(%ebp), %eax
	addl	$512, %eax
	movl	%eax, -496(%ebp)
	movl	-288(%ebp), %eax
	movl	1048(%eax), %edx
	movl	%edx, -492(%ebp)
	movl	-288(%ebp), %eax
	movl	1044(%eax), %edi
	movl	-288(%ebp), %eax
	movl	1040(%eax), %esi
	movl	-288(%ebp), %eax
	movl	1036(%eax), %ecx
	movl	-288(%ebp), %eax
	movl	1032(%eax), %edx
	movl	$1, 80(%esp)
	movl	$.LC7, 76(%esp)
	movl	%ebx, 72(%esp)
	movl	-420(%ebp), %eax
	movl	%eax, 68(%esp)
	movl	$4, 64(%esp)
	movl	-412(%ebp), %eax
	movl	%eax, 60(%esp)
	movl	-520(%ebp), %eax
	movl	%eax, 56(%esp)
	movl	$0x00000000, %eax
	movl	%eax, 52(%esp)
	movl	-516(%ebp), %eax
	movl	%eax, 48(%esp)
	movl	-512(%ebp), %eax
	movl	%eax, 44(%esp)
	movl	-508(%ebp), %eax
	movl	%eax, 40(%esp)
	movl	-504(%ebp), %eax
	movl	%eax, 36(%esp)
	movl	-500(%ebp), %eax
	movl	%eax, 32(%esp)
	movl	-496(%ebp), %eax
	movl	%eax, 28(%esp)
	movl	$0x00000000, %eax
	movl	%eax, 24(%esp)
	movl	-492(%ebp), %eax
	movl	%eax, 20(%esp)
	movl	%edi, 16(%esp)
	movl	%esi, 12(%esp)
	movl	%ecx, 8(%esp)
	movl	%edx, 4(%esp)
	movl	-416(%ebp), %eax
	movl	%eax, (%esp)
	call	convertsplit
	movl	%eax, -416(%ebp)
	movl	-416(%ebp), %eax
	movl	%eax, -380(%ebp)
	.loc 1 92 0
	movl	-288(%ebp), %eax
	leal	512(%eax), %ecx
	movl	-288(%ebp), %eax
	addl	$512, %eax
	movl	%eax, -488(%ebp)
	movl	-288(%ebp), %eax
	movl	1048(%eax), %edx
	movl	%edx, -484(%ebp)
	movl	-288(%ebp), %eax
	movl	1044(%eax), %edx
	movl	%edx, -480(%ebp)
	movl	-288(%ebp), %eax
	movl	1040(%eax), %edx
	movl	%edx, -476(%ebp)
	movl	-288(%ebp), %eax
	flds	1036(%eax)
	flds	.LC12
	faddp	%st, %st(1)
	movl	-288(%ebp), %eax
	movl	1032(%eax), %edx
	movl	%edx, -472(%ebp)
	movl	-288(%ebp), %eax
	addl	$512, %eax
	movl	%eax, -468(%ebp)
	movl	-288(%ebp), %eax
	movl	1048(%eax), %edx
	movl	%edx, -464(%ebp)
	movl	-288(%ebp), %eax
	movl	1044(%eax), %edi
	movl	-288(%ebp), %eax
	movl	1040(%eax), %esi
	movl	-288(%ebp), %eax
	movl	1036(%eax), %ebx
	movl	-288(%ebp), %eax
	movl	1032(%eax), %edx
	movl	$0, 80(%esp)
	movl	$.LC7, 76(%esp)
	movl	%ecx, 72(%esp)
	movl	-420(%ebp), %eax
	movl	%eax, 68(%esp)
	movl	$-1, 64(%esp)
	movl	-412(%ebp), %eax
	movl	%eax, 60(%esp)
	movl	-488(%ebp), %eax
	movl	%eax, 56(%esp)
	movl	$0x00000000, %eax
	movl	%eax, 52(%esp)
	movl	-484(%ebp), %eax
	movl	%eax, 48(%esp)
	movl	-480(%ebp), %eax
	movl	%eax, 44(%esp)
	movl	-476(%ebp), %eax
	movl	%eax, 40(%esp)
	fstps	36(%esp)
	movl	-472(%ebp), %eax
	movl	%eax, 32(%esp)
	movl	-468(%ebp), %eax
	movl	%eax, 28(%esp)
	movl	$0x00000000, %eax
	movl	%eax, 24(%esp)
	movl	-464(%ebp), %eax
	movl	%eax, 20(%esp)
	movl	%edi, 16(%esp)
	movl	%esi, 12(%esp)
	movl	%ebx, 8(%esp)
	movl	%edx, 4(%esp)
	movl	-416(%ebp), %eax
	movl	%eax, (%esp)
	call	convertsplit
	movl	%eax, -416(%ebp)
	movl	-416(%ebp), %eax
	movl	%eax, -388(%ebp)
	.loc 1 95 0
	movl	-420(%ebp), %eax
	movl	%eax, 8(%esp)
	movl	$.LC13, 4(%esp)
	movl	-416(%ebp), %eax
	movl	%eax, (%esp)
	call	addCommandString
	movl	%eax, -416(%ebp)
	.loc 1 97 0
	movl	-288(%ebp), %eax
	leal	512(%eax), %ecx
	movl	-288(%ebp), %eax
	addl	$512, %eax
	movl	%eax, -460(%ebp)
	movl	-288(%ebp), %eax
	movl	1048(%eax), %edx
	movl	%edx, -456(%ebp)
	movl	-288(%ebp), %eax
	movl	1044(%eax), %edx
	movl	%edx, -452(%ebp)
	movl	-288(%ebp), %eax
	movl	1040(%eax), %edx
	movl	%edx, -448(%ebp)
	.loc 1 98 0
	movl	-304(%ebp), %eax
	flds	260(%eax)
	movl	-300(%ebp), %eax
	flds	260(%eax)
	fsubrp	%st, %st(1)
	movl	-288(%ebp), %eax
	flds	1036(%eax)
	fadds	-312(%ebp)
	fxch	%st(1)
	fucompp
	fnstsw	%ax
	sahf
	setae	%al
	.loc 1 97 0
	testb	%al, %al
	je	.L10
	.loc 1 98 0
	movl	-304(%ebp), %eax
	flds	260(%eax)
	movl	-300(%ebp), %eax
	flds	260(%eax)
	.loc 1 97 0
	fsubrp	%st, %st(1)
	jmp	.L11
.L10:
	.loc 1 98 0
	movl	-288(%ebp), %eax
	flds	1036(%eax)
	.loc 1 97 0
	fadds	-312(%ebp)
.L11:
	movl	-288(%ebp), %eax
	movl	1032(%eax), %edx
	movl	%edx, -444(%ebp)
	movl	-288(%ebp), %eax
	addl	$512, %eax
	movl	%eax, -440(%ebp)
	movl	-288(%ebp), %eax
	movl	1048(%eax), %edi
	movl	-288(%ebp), %eax
	movl	1044(%eax), %esi
	movl	-288(%ebp), %eax
	movl	1040(%eax), %ebx
	movl	-288(%ebp), %eax
	flds	1036(%eax)
	flds	.LC12
	faddp	%st, %st(1)
	fxch	%st(1)
	movl	-288(%ebp), %eax
	movl	1032(%eax), %edx
	movl	$1, 80(%esp)
	movl	$.LC7, 76(%esp)
	movl	%ecx, 72(%esp)
	movl	-420(%ebp), %eax
	movl	%eax, 68(%esp)
	movl	$-1, 64(%esp)
	movl	-412(%ebp), %eax
	movl	%eax, 60(%esp)
	movl	-460(%ebp), %eax
	movl	%eax, 56(%esp)
	movl	$0x00000000, %eax
	movl	%eax, 52(%esp)
	movl	-456(%ebp), %eax
	movl	%eax, 48(%esp)
	movl	-452(%ebp), %eax
	movl	%eax, 44(%esp)
	movl	-448(%ebp), %eax
	movl	%eax, 40(%esp)
	fstps	36(%esp)
	movl	-444(%ebp), %eax
	movl	%eax, 32(%esp)
	movl	-440(%ebp), %eax
	movl	%eax, 28(%esp)
	movl	$0x00000000, %eax
	movl	%eax, 24(%esp)
	movl	%edi, 20(%esp)
	movl	%esi, 16(%esp)
	movl	%ebx, 12(%esp)
	fstps	8(%esp)
	movl	%edx, 4(%esp)
	movl	-416(%ebp), %eax
	movl	%eax, (%esp)
	call	convertsplit
	movl	%eax, -416(%ebp)
	movl	-416(%ebp), %eax
	movl	%eax, -376(%ebp)
	.loc 1 102 0
	movl	-288(%ebp), %eax
	leal	512(%eax), %ecx
	movl	-288(%ebp), %eax
	addl	$768, %eax
	movl	%eax, -436(%ebp)
	.loc 1 104 0
	movl	-304(%ebp), %eax
	flds	260(%eax)
	movl	-296(%ebp), %eax
	flds	260(%eax)
	fsubrp	%st, %st(1)
	movl	-288(%ebp), %eax
	flds	1036(%eax)
	fadds	-312(%ebp)
	movl	-300(%ebp), %eax
	flds	260(%eax)
	faddp	%st, %st(1)
	movl	-296(%ebp), %eax
	flds	260(%eax)
	fsubrp	%st, %st(1)
	fxch	%st(1)
	fucompp
	fnstsw	%ax
	sahf
	setae	%al
	.loc 1 102 0
	testb	%al, %al
	je	.L12
	.loc 1 104 0
	movl	-304(%ebp), %eax
	flds	260(%eax)
	movl	-296(%ebp), %eax
	flds	260(%eax)
	.loc 1 102 0
	fsubrp	%st, %st(1)
	jmp	.L13
.L12:
	.loc 1 104 0
	movl	-288(%ebp), %eax
	flds	1036(%eax)
	fadds	-312(%ebp)
	movl	-300(%ebp), %eax
	flds	260(%eax)
	faddp	%st, %st(1)
	movl	-296(%ebp), %eax
	flds	260(%eax)
	.loc 1 102 0
	fsubrp	%st, %st(1)
.L13:
	movl	-288(%ebp), %eax
	addl	$512, %eax
	movl	%eax, -432(%ebp)
	movl	-288(%ebp), %eax
	movl	1048(%eax), %edi
	movl	-288(%ebp), %eax
	movl	1044(%eax), %esi
	movl	-288(%ebp), %eax
	movl	1040(%eax), %ebx
	movl	-304(%ebp), %eax
	flds	260(%eax)
	movl	-300(%ebp), %eax
	flds	260(%eax)
	fsubrp	%st, %st(1)
	movl	-288(%ebp), %eax
	flds	1036(%eax)
	fadds	-312(%ebp)
	fxch	%st(1)
	fucompp
	fnstsw	%ax
	sahf
	setae	%al
	testb	%al, %al
	je	.L14
	movl	-304(%ebp), %eax
	flds	260(%eax)
	movl	-300(%ebp), %eax
	flds	260(%eax)
	fsubrp	%st, %st(1)
	fxch	%st(1)
	jmp	.L15
.L14:
	movl	-288(%ebp), %eax
	flds	1036(%eax)
	fadds	-312(%ebp)
	fxch	%st(1)
.L15:
	movl	-288(%ebp), %eax
	movl	1032(%eax), %edx
	movl	$1, 80(%esp)
	movl	$.LC7, 76(%esp)
	movl	%ecx, 72(%esp)
	movl	-420(%ebp), %eax
	movl	%eax, 68(%esp)
	movl	$-1, 64(%esp)
	movl	-412(%ebp), %eax
	movl	%eax, 60(%esp)
	movl	-436(%ebp), %eax
	movl	%eax, 56(%esp)
	movl	$0x00000000, %eax
	movl	%eax, 52(%esp)
	movl	$0x00000000, %eax
	movl	%eax, 48(%esp)
	movl	$0x42b40000, %eax
	movl	%eax, 44(%esp)
	movl	$0x00000000, %eax
	movl	%eax, 40(%esp)
	fstps	36(%esp)
	movl	$0x00000000, %eax
	movl	%eax, 32(%esp)
	movl	-432(%ebp), %eax
	movl	%eax, 28(%esp)
	movl	$0x00000000, %eax
	movl	%eax, 24(%esp)
	movl	%edi, 20(%esp)
	movl	%esi, 16(%esp)
	movl	%ebx, 12(%esp)
	fstps	8(%esp)
	movl	%edx, 4(%esp)
	movl	-416(%ebp), %eax
	movl	%eax, (%esp)
	call	convertsplit
	movl	%eax, -416(%ebp)
	movl	-416(%ebp), %eax
	movl	%eax, -372(%ebp)
	.loc 1 107 0
	movl	-288(%ebp), %eax
	leal	768(%eax), %ebx
	movl	-288(%ebp), %eax
	leal	768(%eax), %ecx
	movl	-288(%ebp), %eax
	leal	768(%eax), %edx
	.loc 1 108 0
	movl	-304(%ebp), %eax
	flds	260(%eax)
	movl	-296(%ebp), %eax
	flds	260(%eax)
	fsubrp	%st, %st(1)
	movl	-288(%ebp), %eax
	flds	1036(%eax)
	fadds	-312(%ebp)
	movl	-300(%ebp), %eax
	flds	260(%eax)
	faddp	%st, %st(1)
	movl	-296(%ebp), %eax
	flds	260(%eax)
	fsubrp	%st, %st(1)
	fxch	%st(1)
	fucompp
	fnstsw	%ax
	sahf
	setae	%al
	.loc 1 107 0
	testb	%al, %al
	je	.L16
	.loc 1 108 0
	movl	-304(%ebp), %eax
	flds	260(%eax)
	movl	-296(%ebp), %eax
	flds	260(%eax)
	.loc 1 107 0
	fsubrp	%st, %st(1)
	jmp	.L17
.L16:
	.loc 1 108 0
	movl	-288(%ebp), %eax
	flds	1036(%eax)
	fadds	-312(%ebp)
	movl	-300(%ebp), %eax
	flds	260(%eax)
	faddp	%st, %st(1)
	movl	-296(%ebp), %eax
	flds	260(%eax)
	.loc 1 107 0
	fsubrp	%st, %st(1)
.L17:
	movl	$1, 80(%esp)
	movl	$.LC7, 76(%esp)
	movl	%ebx, 72(%esp)
	movl	-420(%ebp), %eax
	movl	%eax, 68(%esp)
	movl	$-1, 64(%esp)
	movl	-412(%ebp), %eax
	movl	%eax, 60(%esp)
	movl	%ecx, 56(%esp)
	movl	$0x00000000, %eax
	movl	%eax, 52(%esp)
	movl	$0x00000000, %eax
	movl	%eax, 48(%esp)
	movl	$0x42b40000, %eax
	movl	%eax, 44(%esp)
	movl	$0x00000000, %eax
	movl	%eax, 40(%esp)
	movl	$0x00000000, %eax
	movl	%eax, 36(%esp)
	movl	$0x00000000, %eax
	movl	%eax, 32(%esp)
	movl	%edx, 28(%esp)
	movl	$0x00000000, %eax
	movl	%eax, 24(%esp)
	movl	$0x00000000, %eax
	movl	%eax, 20(%esp)
	movl	$0x42b40000, %eax
	movl	%eax, 16(%esp)
	movl	$0x00000000, %eax
	movl	%eax, 12(%esp)
	fstps	8(%esp)
	movl	$0x00000000, %eax
	movl	%eax, 4(%esp)
	movl	-416(%ebp), %eax
	movl	%eax, (%esp)
	call	convertsplit
	movl	%eax, -416(%ebp)
	movl	-416(%ebp), %eax
	movl	%eax, -368(%ebp)
	.loc 1 112 0
	movl	-288(%ebp), %eax
	addl	$768, %eax
	movl	-288(%ebp), %edx
	leal	768(%edx), %ecx
	movl	-288(%ebp), %edx
	addl	$768, %edx
	movl	$1, 80(%esp)
	movl	$.LC7, 76(%esp)
	movl	%eax, 72(%esp)
	movl	-420(%ebp), %eax
	movl	%eax, 68(%esp)
	movl	$3, 64(%esp)
	movl	-412(%ebp), %eax
	movl	%eax, 60(%esp)
	movl	%ecx, 56(%esp)
	movl	$0x00000000, %eax
	movl	%eax, 52(%esp)
	movl	$0x00000000, %eax
	movl	%eax, 48(%esp)
	movl	$0x42b40000, %eax
	movl	%eax, 44(%esp)
	movl	$0x00000000, %eax
	movl	%eax, 40(%esp)
	movl	$0x00000000, %eax
	movl	%eax, 36(%esp)
	movl	$0x00000000, %eax
	movl	%eax, 32(%esp)
	movl	%edx, 28(%esp)
	movl	$0x00000000, %eax
	movl	%eax, 24(%esp)
	movl	$0x00000000, %eax
	movl	%eax, 20(%esp)
	movl	$0x42b40000, %eax
	movl	%eax, 16(%esp)
	movl	$0x00000000, %eax
	movl	%eax, 12(%esp)
	movl	$0x00000000, %eax
	movl	%eax, 8(%esp)
	movl	$0x00000000, %eax
	movl	%eax, 4(%esp)
	movl	-416(%ebp), %eax
	movl	%eax, (%esp)
	call	convertsplit
	movl	%eax, -416(%ebp)
	movl	-416(%ebp), %eax
	movl	%eax, -364(%ebp)
	.loc 1 115 0
	movl	-420(%ebp), %eax
	movl	%eax, 8(%esp)
	movl	$.LC9, 4(%esp)
	movl	-416(%ebp), %eax
	movl	%eax, (%esp)
	call	addCommandString
	movl	%eax, -416(%ebp)
	.loc 1 116 0
	movl	-380(%ebp), %eax
	movl	%eax, 4(%esp)
	movl	-412(%ebp), %eax
	movl	%eax, (%esp)
	call	blendCorner3
	.loc 1 117 0
	movl	-376(%ebp), %eax
	movl	%eax, 4(%esp)
	movl	-412(%ebp), %eax
	movl	%eax, (%esp)
	call	blendCorner3
	.loc 1 118 0
	movl	-372(%ebp), %eax
	movl	%eax, 4(%esp)
	movl	-412(%ebp), %eax
	movl	%eax, (%esp)
	call	blendCorner3
	.loc 1 119 0
	movl	-368(%ebp), %eax
	movl	%eax, 4(%esp)
	movl	-412(%ebp), %eax
	movl	%eax, (%esp)
	call	blendCorner3
	.loc 1 120 0
	movl	-420(%ebp), %eax
	movl	%eax, 8(%esp)
	movl	$.LC14, 4(%esp)
	movl	-416(%ebp), %eax
	movl	%eax, (%esp)
	call	addCommandString
	movl	%eax, -416(%ebp)
	.loc 1 156 0
	movl	-416(%ebp), %eax
	.loc 1 157 0
	movl	-28(%ebp), %edx
	xorl	%gs:20, %edx
	je	.L19
	call	__stack_chk_fail
.L19:
	addl	$668, %esp
	popl	%ebx
	popl	%esi
	popl	%edi
	popl	%ebp
	ret
	.cfi_endproc
.LFE0:
	.size	expandSubPathKatrineIn, .-expandSubPathKatrineIn
	.section	.rodata
.LC16:
	.string	"rzminus0"
.LC17:
	.string	"rzplus0"
.LC18:
	.string	"rxminus0"
.LC19:
	.string	"rxplus0"
.LC20:
	.string	"rzminus1"
.LC21:
	.string	"rzplus1"
.LC22:
	.string	"rxminus1"
.LC23:
	.string	"rxplus1"
.LC24:
	.string	"diagxy"
.LC25:
	.string	"ry"
.LC27:
	.string	"COUNTER cBItems += 1"
	.align 4
.LC28:
	.string	"SIGNALEVENT 1 Station ST_RESET"
	.align 4
.LC29:
	.string	"PATH home id=%d,type=%d,time=%d,loadgroup=%d"
.LC31:
	.string	"COUNTER delaystop = 0"
	.text
.globl expandSubPathKatrineOut
	.type	expandSubPathKatrineOut, @function
expandSubPathKatrineOut:
.LFB1:
	.loc 1 165 0
	.cfi_startproc
	pushl	%ebp
.LCFI2:
	.cfi_def_cfa_offset 8
	movl	%esp, %ebp
	.cfi_offset 5, -8
.LCFI3:
	.cfi_def_cfa_register 5
	pushl	%edi
	pushl	%esi
	pushl	%ebx
	subl	$892, %esp
	call	mcount
	movl	8(%ebp), %eax
	movl	%eax, -540(%ebp)
	movl	12(%ebp), %eax
	movl	%eax, -544(%ebp)
	movl	16(%ebp), %eax
	movl	%eax, -548(%ebp)
	movl	24(%ebp), %eax
	movl	%eax, -552(%ebp)
	.loc 1 165 0
	movl	%gs:20, %eax
	movl	%eax, -28(%ebp)
	xorl	%eax, %eax
	.loc 1 171 0
	movl	$0x42c80000, %eax
	movl	%eax, -312(%ebp)
	.loc 1 172 0
	movl	$0x00000000, %eax
	movl	%eax, -316(%ebp)
	.loc 1 177 0
	movl	tworkcell, %eax
	movl	%eax, 4(%esp)
	movl	-552(%ebp), %eax
	movl	%eax, (%esp)
	.cfi_offset 3, -20
	.cfi_offset 6, -16
	.cfi_offset 7, -12
	call	getPPScript
	movl	%eax, -292(%ebp)
	.loc 1 179 0
	movl	$.LC16, (%esp)
	call	getCounterValue
	movl	%eax, (%esp)
	call	atof
	fstps	-348(%ebp)
	.loc 1 180 0
	movl	$.LC17, (%esp)
	call	getCounterValue
	movl	%eax, (%esp)
	call	atof
	fstps	-352(%ebp)
	.loc 1 181 0
	movl	$.LC18, (%esp)
	call	getCounterValue
	movl	%eax, (%esp)
	call	atof
	fstps	-356(%ebp)
	.loc 1 182 0
	movl	$.LC19, (%esp)
	call	getCounterValue
	movl	%eax, (%esp)
	call	atof
	fstps	-360(%ebp)
	.loc 1 183 0
	movl	$.LC20, (%esp)
	call	getCounterValue
	movl	%eax, (%esp)
	call	atof
	fstps	-364(%ebp)
	.loc 1 184 0
	movl	$.LC21, (%esp)
	call	getCounterValue
	movl	%eax, (%esp)
	call	atof
	fstps	-368(%ebp)
	.loc 1 185 0
	movl	$.LC22, (%esp)
	call	getCounterValue
	movl	%eax, (%esp)
	call	atof
	fstps	-372(%ebp)
	.loc 1 186 0
	movl	$.LC23, (%esp)
	call	getCounterValue
	movl	%eax, (%esp)
	call	atof
	fstps	-376(%ebp)
	.loc 1 187 0
	movl	$.LC24, (%esp)
	call	getCounterValue
	movl	%eax, (%esp)
	call	atof
	fstps	-316(%ebp)
	.loc 1 188 0
	movl	$.LC25, (%esp)
	call	getCounterValue
	movl	%eax, (%esp)
	call	atof
	fstps	-344(%ebp)
	.loc 1 191 0
	movl	-292(%ebp), %eax
	leal	272(%eax), %edx
	movl	20(%ebp), %eax
	sall	$5, %eax
	movl	%eax, %ecx
	sall	$5, %ecx
	addl	%ecx, %eax
	leal	(%edx,%eax), %eax
	movl	%eax, -288(%ebp)
	.loc 1 192 0
	movl	-540(%ebp), %eax
	leal	2336(%eax), %ebx
	movl	-288(%ebp), %eax
	leal	512(%eax), %edx
	movl	-540(%ebp), %eax
	movl	%eax, 4(%esp)
	movl	%edx, (%esp)
	call	getFrameIdx
	imull	$280, %eax, %eax
	leal	(%ebx,%eax), %eax
	movl	%eax, -300(%ebp)
	.loc 1 193 0
	movl	-540(%ebp), %eax
	leal	2336(%eax), %ebx
	movl	-288(%ebp), %eax
	leal	768(%eax), %edx
	movl	-540(%ebp), %eax
	movl	%eax, 4(%esp)
	movl	%edx, (%esp)
	call	getFrameIdx
	imull	$280, %eax, %eax
	leal	(%ebx,%eax), %eax
	movl	%eax, -296(%ebp)
	.loc 1 194 0
	movl	-540(%ebp), %eax
	leal	2336(%eax), %ebx
	movl	-540(%ebp), %eax
	movl	%eax, 4(%esp)
	movl	$.LC1, (%esp)
	call	getFrameIdx
	imull	$280, %eax, %eax
	leal	(%ebx,%eax), %eax
	movl	%eax, -304(%ebp)
	.loc 1 289 0
	movl	$2500, -308(%ebp)
	.loc 1 290 0
	movl	-304(%ebp), %eax
	flds	260(%eax)
	movl	-296(%ebp), %eax
	flds	260(%eax)
	fsubrp	%st, %st(1)
	movl	-288(%ebp), %eax
	flds	1036(%eax)
	fsubrp	%st, %st(1)
	fabs
	fstps	-320(%ebp)
	.loc 1 291 0
	fildl	-308(%ebp)
	flds	-320(%ebp)
	fldl	.LC10
	fmulp	%st, %st(1)
	faddp	%st, %st(1)
	fnstcw	-558(%ebp)
	movzwl	-558(%ebp), %eax
	movb	$12, %ah
	movw	%ax, -560(%ebp)
	fldcw	-560(%ebp)
	fistpl	-308(%ebp)
	fldcw	-558(%ebp)
	.loc 1 292 0
	movl	-300(%ebp), %eax
	flds	264(%eax)
	movl	-296(%ebp), %eax
	flds	264(%eax)
	fsubrp	%st, %st(1)
	fabs
	fstps	-320(%ebp)
	.loc 1 293 0
	fildl	-308(%ebp)
	flds	-320(%ebp)
	fldl	.LC10
	fmulp	%st, %st(1)
	faddp	%st, %st(1)
	fldcw	-560(%ebp)
	fistpl	-308(%ebp)
	fldcw	-558(%ebp)
	.loc 1 294 0
	movl	-288(%ebp), %eax
	movl	1028(%eax), %ecx
	movl	-288(%ebp), %eax
	movl	1028(%eax), %edx
	movl	-288(%ebp), %eax
	leal	768(%eax), %esi
	movl	$.LC11, %eax
	movl	28(%ebp), %ebx
	movl	%ebx, 28(%esp)
	movl	-308(%ebp), %ebx
	movl	%ebx, 24(%esp)
	movl	$24, 20(%esp)
	movl	%ecx, 16(%esp)
	movl	%edx, 12(%esp)
	movl	%esi, 8(%esp)
	movl	%eax, 4(%esp)
	leal	-284(%ebp), %eax
	movl	%eax, (%esp)
	call	sprintf
	.loc 1 295 0
	movl	-548(%ebp), %eax
	movl	%eax, 8(%esp)
	leal	-284(%ebp), %eax
	movl	%eax, 4(%esp)
	movl	-544(%ebp), %eax
	movl	%eax, (%esp)
	call	addCommandString
	movl	%eax, -544(%ebp)
	.loc 1 297 0
	movl	-288(%ebp), %eax
	addl	$512, %eax
	movl	-288(%ebp), %edx
	leal	512(%edx), %ecx
	movl	-288(%ebp), %edx
	addl	$512, %edx
	movl	$1, 80(%esp)
	movl	$.LC7, 76(%esp)
	movl	%eax, 72(%esp)
	movl	-548(%ebp), %eax
	movl	%eax, 68(%esp)
	movl	$4, 64(%esp)
	movl	-540(%ebp), %eax
	movl	%eax, 60(%esp)
	movl	%ecx, 56(%esp)
	movl	$0x00000000, %eax
	movl	%eax, 52(%esp)
	movl	$0x00000000, %eax
	movl	%eax, 48(%esp)
	movl	$0x42b40000, %eax
	movl	%eax, 44(%esp)
	movl	$0x00000000, %eax
	movl	%eax, 40(%esp)
	movl	$0x00000000, %eax
	movl	%eax, 36(%esp)
	movl	$0x00000000, %eax
	movl	%eax, 32(%esp)
	movl	%edx, 28(%esp)
	movl	$0x00000000, %eax
	movl	%eax, 24(%esp)
	movl	$0x00000000, %eax
	movl	%eax, 20(%esp)
	movl	$0x42b40000, %eax
	movl	%eax, 16(%esp)
	movl	$0x00000000, %eax
	movl	%eax, 12(%esp)
	movl	$0x00000000, %eax
	movl	%eax, 8(%esp)
	movl	$0x00000000, %eax
	movl	%eax, 4(%esp)
	movl	-544(%ebp), %eax
	movl	%eax, (%esp)
	call	convertsplit
	movl	%eax, -544(%ebp)
	movl	-544(%ebp), %eax
	movl	%eax, -524(%ebp)
	.loc 1 301 0
	movl	-288(%ebp), %eax
	addl	$512, %eax
	movl	-288(%ebp), %edx
	leal	512(%edx), %ecx
	movl	-288(%ebp), %edx
	addl	$512, %edx
	movl	$1, 80(%esp)
	movl	$.LC7, 76(%esp)
	movl	%eax, 72(%esp)
	movl	-548(%ebp), %eax
	movl	%eax, 68(%esp)
	movl	$-1, 64(%esp)
	movl	-540(%ebp), %eax
	movl	%eax, 60(%esp)
	movl	%ecx, 56(%esp)
	movl	$0x00000000, %eax
	movl	%eax, 52(%esp)
	movl	$0x00000000, %eax
	movl	%eax, 48(%esp)
	movl	$0x42b40000, %eax
	movl	%eax, 44(%esp)
	movl	$0x00000000, %eax
	movl	%eax, 40(%esp)
	movl	$0x42c80000, %eax
	movl	%eax, 36(%esp)
	movl	$0x00000000, %eax
	movl	%eax, 32(%esp)
	movl	%edx, 28(%esp)
	movl	$0x00000000, %eax
	movl	%eax, 24(%esp)
	movl	$0x00000000, %eax
	movl	%eax, 20(%esp)
	movl	$0x42b40000, %eax
	movl	%eax, 16(%esp)
	movl	$0x00000000, %eax
	movl	%eax, 12(%esp)
	movl	$0x00000000, %eax
	movl	%eax, 8(%esp)
	movl	$0x00000000, %eax
	movl	%eax, 4(%esp)
	movl	-544(%ebp), %eax
	movl	%eax, (%esp)
	call	convertsplit
	movl	%eax, -544(%ebp)
	movl	-544(%ebp), %eax
	movl	%eax, -520(%ebp)
	.loc 1 304 0
	movl	-548(%ebp), %eax
	movl	%eax, 8(%esp)
	movl	$.LC13, 4(%esp)
	movl	-544(%ebp), %eax
	movl	%eax, (%esp)
	call	addCommandString
	movl	%eax, -544(%ebp)
	.loc 1 305 0
	movl	-288(%ebp), %eax
	flds	1036(%eax)
	fadds	-312(%ebp)
	movl	-296(%ebp), %eax
	flds	260(%eax)
	faddp	%st, %st(1)
	movl	-300(%ebp), %eax
	flds	260(%eax)
	fsubrp	%st, %st(1)
	flds	.LC12
	fxch	%st(1)
	fucompp
	fnstsw	%ax
	sahf
	seta	%al
	testb	%al, %al
	je	.L21
	.loc 1 309 0
	movl	-288(%ebp), %eax
	leal	512(%eax), %ebx
	movl	-288(%ebp), %eax
	leal	512(%eax), %ecx
	.loc 1 310 0
	movl	-288(%ebp), %eax
	flds	1036(%eax)
	fadds	-312(%ebp)
	movl	-296(%ebp), %eax
	flds	260(%eax)
	faddp	%st, %st(1)
	.loc 1 309 0
	movl	-300(%ebp), %eax
	flds	260(%eax)
	fsubrp	%st, %st(1)
	movl	-288(%ebp), %eax
	leal	512(%eax), %edx
	movl	$1, 80(%esp)
	movl	$.LC7, 76(%esp)
	movl	%ebx, 72(%esp)
	movl	-548(%ebp), %eax
	movl	%eax, 68(%esp)
	movl	$-1, 64(%esp)
	movl	-540(%ebp), %eax
	movl	%eax, 60(%esp)
	movl	%ecx, 56(%esp)
	movl	$0x00000000, %eax
	movl	%eax, 52(%esp)
	movl	$0x00000000, %eax
	movl	%eax, 48(%esp)
	movl	$0x42b40000, %eax
	movl	%eax, 44(%esp)
	movl	$0x00000000, %eax
	movl	%eax, 40(%esp)
	fstps	36(%esp)
	movl	$0x00000000, %eax
	movl	%eax, 32(%esp)
	movl	%edx, 28(%esp)
	movl	$0x00000000, %eax
	movl	%eax, 24(%esp)
	movl	$0x00000000, %eax
	movl	%eax, 20(%esp)
	movl	$0x42b40000, %eax
	movl	%eax, 16(%esp)
	movl	$0x00000000, %eax
	movl	%eax, 12(%esp)
	movl	$0x42c80000, %eax
	movl	%eax, 8(%esp)
	movl	$0x00000000, %eax
	movl	%eax, 4(%esp)
	movl	-544(%ebp), %eax
	movl	%eax, (%esp)
	call	convertsplit
	movl	%eax, -544(%ebp)
	movl	-544(%ebp), %eax
	movl	%eax, -516(%ebp)
	.loc 1 313 0
	movl	-288(%ebp), %eax
	leal	768(%eax), %edx
	movl	-288(%ebp), %eax
	addl	$768, %eax
	movl	%eax, -804(%ebp)
	movl	-288(%ebp), %eax
	movl	1048(%eax), %edi
	movl	-288(%ebp), %eax
	movl	1044(%eax), %esi
	movl	-288(%ebp), %eax
	movl	1040(%eax), %ebx
	movl	-288(%ebp), %eax
	flds	1036(%eax)
	fadds	-312(%ebp)
	movl	-288(%ebp), %eax
	movl	1032(%eax), %ecx
	movl	-288(%ebp), %eax
	addl	$512, %eax
	movl	%eax, -800(%ebp)
	.loc 1 314 0
	movl	-288(%ebp), %eax
	flds	1036(%eax)
	fadds	-312(%ebp)
	movl	-296(%ebp), %eax
	flds	260(%eax)
	faddp	%st, %st(1)
	.loc 1 313 0
	movl	-300(%ebp), %eax
	flds	260(%eax)
	fsubrp	%st, %st(1)
	fxch	%st(1)
	movl	$1, 80(%esp)
	movl	$.LC7, 76(%esp)
	movl	%edx, 72(%esp)
	movl	-548(%ebp), %eax
	movl	%eax, 68(%esp)
	movl	$-1, 64(%esp)
	movl	-540(%ebp), %eax
	movl	%eax, 60(%esp)
	movl	-804(%ebp), %edx
	movl	%edx, 56(%esp)
	movl	$0x00000000, %eax
	movl	%eax, 52(%esp)
	movl	%edi, 48(%esp)
	movl	%esi, 44(%esp)
	movl	%ebx, 40(%esp)
	fstps	36(%esp)
	movl	%ecx, 32(%esp)
	movl	-800(%ebp), %ecx
	movl	%ecx, 28(%esp)
	movl	$0x00000000, %eax
	movl	%eax, 24(%esp)
	movl	$0x00000000, %eax
	movl	%eax, 20(%esp)
	movl	$0x42b40000, %eax
	movl	%eax, 16(%esp)
	movl	$0x00000000, %eax
	movl	%eax, 12(%esp)
	fstps	8(%esp)
	movl	$0x00000000, %eax
	movl	%eax, 4(%esp)
	movl	-544(%ebp), %eax
	movl	%eax, (%esp)
	call	convertsplit
	movl	%eax, -544(%ebp)
	movl	-544(%ebp), %eax
	movl	%eax, -512(%ebp)
	.loc 1 318 0
	movl	-288(%ebp), %eax
	leal	768(%eax), %ecx
	movl	-288(%ebp), %eax
	addl	$768, %eax
	movl	%eax, -796(%ebp)
	movl	-288(%ebp), %eax
	movl	1048(%eax), %edx
	movl	%edx, -792(%ebp)
	movl	-288(%ebp), %eax
	movl	1044(%eax), %edx
	movl	%edx, -788(%ebp)
	movl	-288(%ebp), %eax
	movl	1040(%eax), %edx
	movl	%edx, -784(%ebp)
	movl	-288(%ebp), %eax
	flds	1036(%eax)
	fadds	-344(%ebp)
	movl	-288(%ebp), %eax
	movl	1032(%eax), %edx
	movl	%edx, -780(%ebp)
	movl	-288(%ebp), %eax
	addl	$768, %eax
	movl	%eax, -776(%ebp)
	movl	-288(%ebp), %eax
	movl	1048(%eax), %edi
	movl	-288(%ebp), %eax
	movl	1044(%eax), %esi
	movl	-288(%ebp), %eax
	movl	1040(%eax), %ebx
	movl	-288(%ebp), %eax
	flds	1036(%eax)
	fadds	-312(%ebp)
	fxch	%st(1)
	movl	-288(%ebp), %eax
	movl	1032(%eax), %edx
	movl	$1, 80(%esp)
	movl	$.LC7, 76(%esp)
	movl	%ecx, 72(%esp)
	movl	-548(%ebp), %eax
	movl	%eax, 68(%esp)
	movl	$4, 64(%esp)
	movl	-540(%ebp), %eax
	movl	%eax, 60(%esp)
	movl	-796(%ebp), %ecx
	movl	%ecx, 56(%esp)
	movl	$0x00000000, %eax
	movl	%eax, 52(%esp)
	movl	-792(%ebp), %eax
	movl	%eax, 48(%esp)
	movl	-788(%ebp), %ecx
	movl	%ecx, 44(%esp)
	movl	-784(%ebp), %eax
	movl	%eax, 40(%esp)
	fstps	36(%esp)
	movl	-780(%ebp), %ecx
	movl	%ecx, 32(%esp)
	movl	-776(%ebp), %eax
	movl	%eax, 28(%esp)
	movl	$0x00000000, %eax
	movl	%eax, 24(%esp)
	movl	%edi, 20(%esp)
	movl	%esi, 16(%esp)
	movl	%ebx, 12(%esp)
	fstps	8(%esp)
	movl	%edx, 4(%esp)
	movl	-544(%ebp), %eax
	movl	%eax, (%esp)
	call	convertsplit
	movl	%eax, -544(%ebp)
	movl	-544(%ebp), %eax
	movl	%eax, -508(%ebp)
	.loc 1 322 0
	movl	-288(%ebp), %eax
	leal	768(%eax), %ecx
	movl	-288(%ebp), %eax
	addl	$768, %eax
	movl	%eax, -772(%ebp)
	movl	-288(%ebp), %eax
	movl	1048(%eax), %edx
	movl	%edx, -768(%ebp)
	movl	-288(%ebp), %eax
	movl	1044(%eax), %edx
	movl	%edx, -764(%ebp)
	movl	-288(%ebp), %eax
	movl	1040(%eax), %edx
	movl	%edx, -760(%ebp)
	movl	-288(%ebp), %eax
	movl	1036(%eax), %edx
	movl	%edx, -756(%ebp)
	movl	-288(%ebp), %eax
	movl	1032(%eax), %edx
	movl	%edx, -752(%ebp)
	movl	-288(%ebp), %eax
	addl	$768, %eax
	movl	%eax, -748(%ebp)
	movl	-288(%ebp), %eax
	movl	1048(%eax), %edi
	movl	-288(%ebp), %eax
	movl	1044(%eax), %esi
	movl	-288(%ebp), %eax
	movl	1040(%eax), %ebx
	movl	-288(%ebp), %eax
	flds	1036(%eax)
	fadds	-344(%ebp)
	movl	-288(%ebp), %eax
	movl	1032(%eax), %edx
	movl	$1, 80(%esp)
	movl	$.LC7, 76(%esp)
	movl	%ecx, 72(%esp)
	movl	-548(%ebp), %eax
	movl	%eax, 68(%esp)
	movl	$18, 64(%esp)
	movl	-540(%ebp), %eax
	movl	%eax, 60(%esp)
	movl	-772(%ebp), %ecx
	movl	%ecx, 56(%esp)
	movl	$0x00000000, %eax
	movl	%eax, 52(%esp)
	movl	-768(%ebp), %eax
	movl	%eax, 48(%esp)
	movl	-764(%ebp), %ecx
	movl	%ecx, 44(%esp)
	movl	-760(%ebp), %eax
	movl	%eax, 40(%esp)
	movl	-756(%ebp), %ecx
	movl	%ecx, 36(%esp)
	movl	-752(%ebp), %eax
	movl	%eax, 32(%esp)
	movl	-748(%ebp), %ecx
	movl	%ecx, 28(%esp)
	movl	$0x00000000, %eax
	movl	%eax, 24(%esp)
	movl	%edi, 20(%esp)
	movl	%esi, 16(%esp)
	movl	%ebx, 12(%esp)
	fstps	8(%esp)
	movl	%edx, 4(%esp)
	movl	-544(%ebp), %eax
	movl	%eax, (%esp)
	call	convertsplit
	movl	%eax, -544(%ebp)
	movl	-544(%ebp), %eax
	movl	%eax, -488(%ebp)
	.loc 1 325 0
	movl	-516(%ebp), %eax
	movl	%eax, 4(%esp)
	movl	-540(%ebp), %eax
	movl	%eax, (%esp)
	call	blendCorner3
	jmp	.L22
.L21:
	.loc 1 330 0
	movl	-288(%ebp), %eax
	leal	768(%eax), %edi
	movl	-288(%ebp), %eax
	leal	768(%eax), %esi
	movl	-288(%ebp), %eax
	movl	1048(%eax), %edx
	movl	-288(%ebp), %eax
	movl	1044(%eax), %eax
	movl	-288(%ebp), %ecx
	flds	1040(%ecx)
	fadds	-316(%ebp)
	.loc 1 332 0
	movl	-300(%ebp), %ecx
	flds	260(%ecx)
	flds	.LC12
	faddp	%st, %st(1)
	.loc 1 330 0
	movl	-296(%ebp), %ecx
	flds	260(%ecx)
	fsubrp	%st, %st(1)
	movl	-288(%ebp), %ecx
	flds	1032(%ecx)
	fsubs	-316(%ebp)
	fxch	%st(2)
	movl	-288(%ebp), %ecx
	leal	512(%ecx), %ebx
	movl	$1, 80(%esp)
	movl	$.LC7, 76(%esp)
	movl	%edi, 72(%esp)
	movl	-548(%ebp), %ecx
	movl	%ecx, 68(%esp)
	movl	$-1, 64(%esp)
	movl	-540(%ebp), %ecx
	movl	%ecx, 60(%esp)
	movl	%esi, 56(%esp)
	movl	$0x00000000, %ecx
	movl	%ecx, 52(%esp)
	movl	%edx, 48(%esp)
	movl	%eax, 44(%esp)
	fstps	40(%esp)
	fstps	36(%esp)
	fstps	32(%esp)
	movl	%ebx, 28(%esp)
	movl	$0x00000000, %eax
	movl	%eax, 24(%esp)
	movl	$0x00000000, %eax
	movl	%eax, 20(%esp)
	movl	$0x42b40000, %eax
	movl	%eax, 16(%esp)
	movl	$0x00000000, %eax
	movl	%eax, 12(%esp)
	movl	$0x42c80000, %eax
	movl	%eax, 8(%esp)
	movl	$0x00000000, %eax
	movl	%eax, 4(%esp)
	movl	-544(%ebp), %eax
	movl	%eax, (%esp)
	call	convertsplit
	movl	%eax, -544(%ebp)
	movl	-544(%ebp), %eax
	movl	%eax, -512(%ebp)
	.loc 1 335 0
	movl	-288(%ebp), %eax
	leal	768(%eax), %edi
	movl	-288(%ebp), %eax
	addl	$768, %eax
	movl	%eax, -744(%ebp)
	movl	-288(%ebp), %eax
	movl	1048(%eax), %esi
	movl	-288(%ebp), %eax
	movl	1044(%eax), %ebx
	movl	-288(%ebp), %eax
	flds	1040(%eax)
	fadds	-316(%ebp)
	movl	-288(%ebp), %eax
	flds	1036(%eax)
	fadds	-312(%ebp)
	movl	-288(%ebp), %eax
	flds	1032(%eax)
	fsubs	-316(%ebp)
	movl	-288(%ebp), %eax
	addl	$768, %eax
	movl	%eax, -740(%ebp)
	movl	-288(%ebp), %eax
	movl	1048(%eax), %ecx
	movl	-288(%ebp), %eax
	movl	1044(%eax), %edx
	movl	-288(%ebp), %eax
	flds	1040(%eax)
	fadds	-316(%ebp)
	movl	-300(%ebp), %eax
	flds	260(%eax)
	flds	.LC12
	faddp	%st, %st(1)
	movl	-296(%ebp), %eax
	flds	260(%eax)
	fsubrp	%st, %st(1)
	movl	-288(%ebp), %eax
	flds	1032(%eax)
	fsubs	-316(%ebp)
	fxch	%st(5)
	movl	$1, 80(%esp)
	movl	$.LC7, 76(%esp)
	movl	%edi, 72(%esp)
	movl	-548(%ebp), %eax
	movl	%eax, 68(%esp)
	movl	$-1, 64(%esp)
	movl	-540(%ebp), %eax
	movl	%eax, 60(%esp)
	movl	-744(%ebp), %eax
	movl	%eax, 56(%esp)
	movl	$0x00000000, %eax
	movl	%eax, 52(%esp)
	movl	%esi, 48(%esp)
	movl	%ebx, 44(%esp)
	fstps	40(%esp)
	fxch	%st(3)
	fstps	36(%esp)
	fxch	%st(1)
	fstps	32(%esp)
	movl	-740(%ebp), %eax
	movl	%eax, 28(%esp)
	movl	$0x00000000, %eax
	movl	%eax, 24(%esp)
	movl	%ecx, 20(%esp)
	movl	%edx, 16(%esp)
	fstps	12(%esp)
	fstps	8(%esp)
	fstps	4(%esp)
	movl	-544(%ebp), %eax
	movl	%eax, (%esp)
	call	convertsplit
	movl	%eax, -544(%ebp)
	movl	-544(%ebp), %eax
	movl	%eax, -508(%ebp)
	.loc 1 339 0
	movl	-288(%ebp), %eax
	leal	768(%eax), %edx
	movl	-288(%ebp), %eax
	addl	$768, %eax
	movl	%eax, -736(%ebp)
	movl	-288(%ebp), %eax
	movl	1048(%eax), %ecx
	movl	%ecx, -732(%ebp)
	movl	-288(%ebp), %eax
	movl	1044(%eax), %ecx
	movl	%ecx, -728(%ebp)
	movl	-288(%ebp), %eax
	movl	1040(%eax), %edi
	movl	-288(%ebp), %eax
	flds	1036(%eax)
	fadds	-312(%ebp)
	movl	-288(%ebp), %eax
	movl	1032(%eax), %esi
	movl	-288(%ebp), %eax
	addl	$768, %eax
	movl	%eax, -724(%ebp)
	movl	-288(%ebp), %eax
	movl	1048(%eax), %ebx
	movl	-288(%ebp), %eax
	movl	1044(%eax), %ecx
	movl	-288(%ebp), %eax
	flds	1040(%eax)
	fadds	-316(%ebp)
	movl	-288(%ebp), %eax
	flds	1036(%eax)
	fadds	-312(%ebp)
	movl	-288(%ebp), %eax
	flds	1032(%eax)
	fsubs	-316(%ebp)
	fxch	%st(3)
	movl	$1, 80(%esp)
	movl	$.LC7, 76(%esp)
	movl	%edx, 72(%esp)
	movl	-548(%ebp), %eax
	movl	%eax, 68(%esp)
	movl	$-1, 64(%esp)
	movl	-540(%ebp), %eax
	movl	%eax, 60(%esp)
	movl	-736(%ebp), %eax
	movl	%eax, 56(%esp)
	movl	$0x00000000, %eax
	movl	%eax, 52(%esp)
	movl	-732(%ebp), %edx
	movl	%edx, 48(%esp)
	movl	-728(%ebp), %eax
	movl	%eax, 44(%esp)
	movl	%edi, 40(%esp)
	fstps	36(%esp)
	fxch	%st(1)
	movl	%esi, 32(%esp)
	movl	-724(%ebp), %edx
	movl	%edx, 28(%esp)
	movl	$0x00000000, %eax
	movl	%eax, 24(%esp)
	movl	%ebx, 20(%esp)
	movl	%ecx, 16(%esp)
	fstps	12(%esp)
	fstps	8(%esp)
	fstps	4(%esp)
	movl	-544(%ebp), %eax
	movl	%eax, (%esp)
	call	convertsplit
	movl	%eax, -544(%ebp)
	movl	-544(%ebp), %eax
	movl	%eax, -500(%ebp)
	.loc 1 344 0
	movl	-288(%ebp), %eax
	leal	768(%eax), %ecx
	movl	-288(%ebp), %eax
	addl	$768, %eax
	movl	%eax, -720(%ebp)
	movl	-288(%ebp), %eax
	movl	1048(%eax), %edx
	movl	%edx, -716(%ebp)
	movl	-288(%ebp), %eax
	movl	1044(%eax), %edx
	movl	%edx, -712(%ebp)
	movl	-288(%ebp), %eax
	movl	1040(%eax), %edx
	movl	%edx, -708(%ebp)
	movl	-288(%ebp), %eax
	flds	1036(%eax)
	fadds	-344(%ebp)
	movl	-288(%ebp), %eax
	movl	1032(%eax), %edx
	movl	%edx, -704(%ebp)
	movl	-288(%ebp), %eax
	addl	$768, %eax
	movl	%eax, -700(%ebp)
	movl	-288(%ebp), %eax
	movl	1048(%eax), %edi
	movl	-288(%ebp), %eax
	movl	1044(%eax), %esi
	movl	-288(%ebp), %eax
	movl	1040(%eax), %ebx
	movl	-288(%ebp), %eax
	flds	1036(%eax)
	fadds	-312(%ebp)
	fxch	%st(1)
	movl	-288(%ebp), %eax
	movl	1032(%eax), %edx
	movl	$1, 80(%esp)
	movl	$.LC7, 76(%esp)
	movl	%ecx, 72(%esp)
	movl	-548(%ebp), %eax
	movl	%eax, 68(%esp)
	movl	$-1, 64(%esp)
	movl	-540(%ebp), %eax
	movl	%eax, 60(%esp)
	movl	-720(%ebp), %ecx
	movl	%ecx, 56(%esp)
	movl	$0x00000000, %eax
	movl	%eax, 52(%esp)
	movl	-716(%ebp), %eax
	movl	%eax, 48(%esp)
	movl	-712(%ebp), %ecx
	movl	%ecx, 44(%esp)
	movl	-708(%ebp), %eax
	movl	%eax, 40(%esp)
	fstps	36(%esp)
	movl	-704(%ebp), %ecx
	movl	%ecx, 32(%esp)
	movl	-700(%ebp), %eax
	movl	%eax, 28(%esp)
	movl	$0x00000000, %eax
	movl	%eax, 24(%esp)
	movl	%edi, 20(%esp)
	movl	%esi, 16(%esp)
	movl	%ebx, 12(%esp)
	fstps	8(%esp)
	movl	%edx, 4(%esp)
	movl	-544(%ebp), %eax
	movl	%eax, (%esp)
	call	convertsplit
	movl	%eax, -544(%ebp)
	movl	-544(%ebp), %eax
	movl	%eax, -492(%ebp)
	.loc 1 349 0
	movl	-288(%ebp), %eax
	leal	768(%eax), %ecx
	movl	-288(%ebp), %eax
	addl	$768, %eax
	movl	%eax, -696(%ebp)
	movl	-288(%ebp), %eax
	movl	1048(%eax), %edx
	movl	%edx, -692(%ebp)
	movl	-288(%ebp), %eax
	movl	1044(%eax), %edx
	movl	%edx, -688(%ebp)
	movl	-288(%ebp), %eax
	movl	1040(%eax), %edx
	movl	%edx, -684(%ebp)
	movl	-288(%ebp), %eax
	movl	1036(%eax), %edx
	movl	%edx, -680(%ebp)
	movl	-288(%ebp), %eax
	movl	1032(%eax), %edx
	movl	%edx, -676(%ebp)
	movl	-288(%ebp), %eax
	addl	$768, %eax
	movl	%eax, -672(%ebp)
	movl	-288(%ebp), %eax
	movl	1048(%eax), %edi
	movl	-288(%ebp), %eax
	movl	1044(%eax), %esi
	movl	-288(%ebp), %eax
	movl	1040(%eax), %ebx
	movl	-288(%ebp), %eax
	flds	1036(%eax)
	fadds	-344(%ebp)
	movl	-288(%ebp), %eax
	movl	1032(%eax), %edx
	movl	$1, 80(%esp)
	movl	$.LC7, 76(%esp)
	movl	%ecx, 72(%esp)
	movl	-548(%ebp), %eax
	movl	%eax, 68(%esp)
	movl	$18, 64(%esp)
	movl	-540(%ebp), %eax
	movl	%eax, 60(%esp)
	movl	-696(%ebp), %ecx
	movl	%ecx, 56(%esp)
	movl	$0x00000000, %eax
	movl	%eax, 52(%esp)
	movl	-692(%ebp), %eax
	movl	%eax, 48(%esp)
	movl	-688(%ebp), %ecx
	movl	%ecx, 44(%esp)
	movl	-684(%ebp), %eax
	movl	%eax, 40(%esp)
	movl	-680(%ebp), %ecx
	movl	%ecx, 36(%esp)
	movl	-676(%ebp), %eax
	movl	%eax, 32(%esp)
	movl	-672(%ebp), %ecx
	movl	%ecx, 28(%esp)
	movl	$0x00000000, %eax
	movl	%eax, 24(%esp)
	movl	%edi, 20(%esp)
	movl	%esi, 16(%esp)
	movl	%ebx, 12(%esp)
	fstps	8(%esp)
	movl	%edx, 4(%esp)
	movl	-544(%ebp), %eax
	movl	%eax, (%esp)
	call	convertsplit
	movl	%eax, -544(%ebp)
	movl	-544(%ebp), %eax
	movl	%eax, -488(%ebp)
	.loc 1 352 0
	movl	-500(%ebp), %eax
	movl	%eax, 4(%esp)
	movl	-540(%ebp), %eax
	movl	%eax, (%esp)
	call	blendCorner3
	.loc 1 353 0
	movl	-492(%ebp), %eax
	movl	%eax, 4(%esp)
	movl	-540(%ebp), %eax
	movl	%eax, (%esp)
	call	blendCorner3
.L22:
	.loc 1 355 0
	movl	-548(%ebp), %eax
	movl	%eax, 8(%esp)
	movl	$.LC9, 4(%esp)
	movl	-544(%ebp), %eax
	movl	%eax, (%esp)
	call	addCommandString
	movl	%eax, -544(%ebp)
	.loc 1 356 0
	movl	-524(%ebp), %eax
	movl	%eax, 4(%esp)
	movl	-540(%ebp), %eax
	movl	%eax, (%esp)
	call	blendCorner3
	.loc 1 357 0
	movl	-520(%ebp), %eax
	movl	%eax, 4(%esp)
	movl	-540(%ebp), %eax
	movl	%eax, (%esp)
	call	blendCorner3
	.loc 1 358 0
	movl	-512(%ebp), %eax
	movl	%eax, 4(%esp)
	movl	-540(%ebp), %eax
	movl	%eax, (%esp)
	call	blendCorner3
	.loc 1 359 0
	movl	-508(%ebp), %eax
	movl	%eax, 4(%esp)
	movl	-540(%ebp), %eax
	movl	%eax, (%esp)
	call	blendCorner3
	.loc 1 361 0
	movl	-288(%ebp), %eax
	movl	1024(%eax), %eax
	testl	%eax, %eax
	jne	.L23
	.loc 1 363 0
	movl	$0x00000000, %eax
	movl	%eax, -340(%ebp)
	.loc 1 364 0
	movl	$0x00000000, %eax
	movl	%eax, -324(%ebp)
	.loc 1 365 0
	movl	$0x00000000, %eax
	movl	%eax, -328(%ebp)
	.loc 1 366 0
	movl	$0x00000000, %eax
	movl	%eax, -332(%ebp)
	.loc 1 367 0
	movl	$0x00000000, %eax
	movl	%eax, -336(%ebp)
	jmp	.L24
.L23:
	.loc 1 371 0
	movl	-288(%ebp), %eax
	movl	1024(%eax), %eax
	movl	%eax, -564(%ebp)
	fildl	-564(%ebp)
	fstps	-340(%ebp)
	.loc 1 372 0
	flds	-340(%ebp)
	flds	.LC26
	fdivrp	%st, %st(1)
	fstps	-340(%ebp)
	.loc 1 373 0
	flds	-340(%ebp)
	fmuls	-364(%ebp)
	fadds	-348(%ebp)
	fstps	-324(%ebp)
	.loc 1 374 0
	flds	-340(%ebp)
	fmuls	-368(%ebp)
	fadds	-352(%ebp)
	fstps	-328(%ebp)
	.loc 1 375 0
	flds	-340(%ebp)
	fmuls	-372(%ebp)
	fadds	-356(%ebp)
	fstps	-332(%ebp)
	.loc 1 376 0
	flds	-340(%ebp)
	fmuls	-376(%ebp)
	fadds	-360(%ebp)
	fstps	-336(%ebp)
.L24:
	.loc 1 379 0
	movl	-488(%ebp), %eax
	movl	12(%eax), %eax
	movl	12(%eax), %eax
	.loc 1 378 0
	movl	-336(%ebp), %edx
	movl	%edx, 20(%esp)
	movl	-332(%ebp), %edx
	movl	%edx, 16(%esp)
	movl	-328(%ebp), %edx
	movl	%edx, 12(%esp)
	movl	-324(%ebp), %edx
	movl	%edx, 8(%esp)
	movl	%eax, 4(%esp)
	movl	-540(%ebp), %eax
	movl	%eax, (%esp)
	call	seekCornerX
	.loc 1 385 0
	movl	-548(%ebp), %eax
	movl	%eax, 8(%esp)
	movl	$.LC27, 4(%esp)
	movl	-544(%ebp), %eax
	movl	%eax, (%esp)
	call	addCommandString
	movl	%eax, -544(%ebp)
	.loc 1 386 0
	movl	-548(%ebp), %eax
	movl	%eax, 8(%esp)
	movl	$.LC28, 4(%esp)
	movl	-544(%ebp), %eax
	movl	%eax, (%esp)
	call	addCommandString
	movl	%eax, -544(%ebp)
	.loc 1 391 0
	movl	$1500, -308(%ebp)
	.loc 1 392 0
	movl	-304(%ebp), %eax
	flds	260(%eax)
	movl	-296(%ebp), %eax
	flds	260(%eax)
	fsubrp	%st, %st(1)
	movl	-288(%ebp), %eax
	flds	1036(%eax)
	fsubrp	%st, %st(1)
	fabs
	fstps	-320(%ebp)
	.loc 1 393 0
	fildl	-308(%ebp)
	flds	-320(%ebp)
	fldl	.LC2
	fmulp	%st, %st(1)
	faddp	%st, %st(1)
	fnstcw	-558(%ebp)
	movzwl	-558(%ebp), %eax
	movb	$12, %ah
	movw	%ax, -560(%ebp)
	fldcw	-560(%ebp)
	fistpl	-308(%ebp)
	fldcw	-558(%ebp)
	.loc 1 394 0
	movl	-304(%ebp), %eax
	flds	264(%eax)
	movl	-296(%ebp), %eax
	flds	264(%eax)
	fsubrp	%st, %st(1)
	fabs
	fstps	-320(%ebp)
	.loc 1 395 0
	fildl	-308(%ebp)
	flds	-320(%ebp)
	fldl	.LC2
	fmulp	%st, %st(1)
	faddp	%st, %st(1)
	fldcw	-560(%ebp)
	fistpl	-308(%ebp)
	fldcw	-558(%ebp)
	.loc 1 396 0
	movl	-288(%ebp), %eax
	movl	1028(%eax), %edx
	movl	$.LC29, %eax
	movl	28(%ebp), %ecx
	movl	%ecx, 20(%esp)
	movl	-308(%ebp), %ecx
	movl	%ecx, 16(%esp)
	movl	$25, 12(%esp)
	movl	%edx, 8(%esp)
	movl	%eax, 4(%esp)
	leal	-284(%ebp), %eax
	movl	%eax, (%esp)
	call	sprintf
	.loc 1 397 0
	movl	-548(%ebp), %eax
	movl	%eax, 8(%esp)
	leal	-284(%ebp), %eax
	movl	%eax, 4(%esp)
	movl	-544(%ebp), %eax
	movl	%eax, (%esp)
	call	addCommandString
	movl	%eax, -544(%ebp)
	.loc 1 399 0
	movl	-288(%ebp), %eax
	leal	768(%eax), %ebx
	movl	-288(%ebp), %eax
	addl	$768, %eax
	movl	%eax, -668(%ebp)
	movl	-288(%ebp), %eax
	movl	1048(%eax), %edx
	movl	%edx, -664(%ebp)
	movl	-288(%ebp), %eax
	movl	1044(%eax), %ecx
	movl	%ecx, -660(%ebp)
	movl	-288(%ebp), %eax
	movl	1040(%eax), %edx
	movl	%edx, -656(%ebp)
	movl	-288(%ebp), %eax
	movl	1036(%eax), %ecx
	movl	%ecx, -652(%ebp)
	movl	-288(%ebp), %eax
	movl	1032(%eax), %edx
	movl	%edx, -648(%ebp)
	movl	-288(%ebp), %eax
	addl	$768, %eax
	movl	%eax, -644(%ebp)
	movl	-288(%ebp), %eax
	movl	1048(%eax), %ecx
	movl	%ecx, -640(%ebp)
	movl	-288(%ebp), %eax
	movl	1044(%eax), %edi
	movl	-288(%ebp), %eax
	movl	1040(%eax), %esi
	movl	-288(%ebp), %eax
	movl	1036(%eax), %ecx
	movl	-288(%ebp), %eax
	movl	1032(%eax), %edx
	movl	$0, 80(%esp)
	movl	$.LC7, 76(%esp)
	movl	%ebx, 72(%esp)
	movl	-548(%ebp), %eax
	movl	%eax, 68(%esp)
	movl	$4, 64(%esp)
	movl	-540(%ebp), %eax
	movl	%eax, 60(%esp)
	movl	-668(%ebp), %eax
	movl	%eax, 56(%esp)
	movl	$0x00000000, %eax
	movl	%eax, 52(%esp)
	movl	-664(%ebp), %eax
	movl	%eax, 48(%esp)
	movl	-660(%ebp), %eax
	movl	%eax, 44(%esp)
	movl	-656(%ebp), %eax
	movl	%eax, 40(%esp)
	movl	-652(%ebp), %eax
	movl	%eax, 36(%esp)
	movl	-648(%ebp), %eax
	movl	%eax, 32(%esp)
	movl	-644(%ebp), %eax
	movl	%eax, 28(%esp)
	movl	$0x00000000, %eax
	movl	%eax, 24(%esp)
	movl	-640(%ebp), %eax
	movl	%eax, 20(%esp)
	movl	%edi, 16(%esp)
	movl	%esi, 12(%esp)
	movl	%ecx, 8(%esp)
	movl	%edx, 4(%esp)
	movl	-544(%ebp), %eax
	movl	%eax, (%esp)
	call	convertsplit
	movl	%eax, -544(%ebp)
	movl	-544(%ebp), %eax
	movl	%eax, -460(%ebp)
	.loc 1 403 0
	movl	-288(%ebp), %eax
	leal	768(%eax), %ecx
	movl	-288(%ebp), %eax
	addl	$768, %eax
	movl	%eax, -636(%ebp)
	movl	-288(%ebp), %eax
	movl	1048(%eax), %edx
	movl	%edx, -632(%ebp)
	movl	-288(%ebp), %eax
	movl	1044(%eax), %edx
	movl	%edx, -628(%ebp)
	movl	-288(%ebp), %eax
	movl	1040(%eax), %edx
	movl	%edx, -624(%ebp)
	movl	-288(%ebp), %eax
	flds	1036(%eax)
	flds	.LC30
	faddp	%st, %st(1)
	movl	-288(%ebp), %eax
	movl	1032(%eax), %edx
	movl	%edx, -620(%ebp)
	movl	-288(%ebp), %eax
	addl	$768, %eax
	movl	%eax, -616(%ebp)
	movl	-288(%ebp), %eax
	movl	1048(%eax), %edi
	movl	-288(%ebp), %eax
	movl	1044(%eax), %esi
	movl	-288(%ebp), %eax
	movl	1040(%eax), %ebx
	movl	-288(%ebp), %eax
	flds	1036(%eax)
	flds	.LC30
	faddp	%st, %st(1)
	fxch	%st(1)
	movl	-288(%ebp), %eax
	movl	1032(%eax), %edx
	movl	$0, 80(%esp)
	movl	$.LC7, 76(%esp)
	movl	%ecx, 72(%esp)
	movl	-548(%ebp), %eax
	movl	%eax, 68(%esp)
	movl	$4, 64(%esp)
	movl	-540(%ebp), %eax
	movl	%eax, 60(%esp)
	movl	-636(%ebp), %ecx
	movl	%ecx, 56(%esp)
	movl	$0x00000000, %eax
	movl	%eax, 52(%esp)
	movl	-632(%ebp), %eax
	movl	%eax, 48(%esp)
	movl	-628(%ebp), %ecx
	movl	%ecx, 44(%esp)
	movl	-624(%ebp), %eax
	movl	%eax, 40(%esp)
	fstps	36(%esp)
	movl	-620(%ebp), %ecx
	movl	%ecx, 32(%esp)
	movl	-616(%ebp), %eax
	movl	%eax, 28(%esp)
	movl	$0x00000000, %eax
	movl	%eax, 24(%esp)
	movl	%edi, 20(%esp)
	movl	%esi, 16(%esp)
	movl	%ebx, 12(%esp)
	fstps	8(%esp)
	movl	%edx, 4(%esp)
	movl	-544(%ebp), %eax
	movl	%eax, (%esp)
	call	convertsplit
	movl	%eax, -544(%ebp)
	movl	-544(%ebp), %eax
	movl	%eax, -456(%ebp)
	.loc 1 407 0
	movl	-548(%ebp), %eax
	movl	%eax, 8(%esp)
	movl	$.LC13, 4(%esp)
	movl	-544(%ebp), %eax
	movl	%eax, (%esp)
	call	addCommandString
	movl	%eax, -544(%ebp)
	.loc 1 409 0
	movl	-288(%ebp), %eax
	leal	768(%eax), %ecx
	movl	-288(%ebp), %eax
	addl	$768, %eax
	movl	%eax, -612(%ebp)
	movl	-288(%ebp), %eax
	movl	1048(%eax), %edx
	movl	%edx, -608(%ebp)
	movl	-288(%ebp), %eax
	movl	1044(%eax), %edx
	movl	%edx, -604(%ebp)
	movl	-288(%ebp), %eax
	movl	1040(%eax), %edx
	movl	%edx, -600(%ebp)
	movl	-288(%ebp), %eax
	flds	1036(%eax)
	flds	.LC30
	faddp	%st, %st(1)
	movl	-288(%ebp), %eax
	movl	1032(%eax), %edx
	movl	%edx, -596(%ebp)
	movl	-288(%ebp), %eax
	addl	$768, %eax
	movl	%eax, -592(%ebp)
	movl	-288(%ebp), %eax
	movl	1048(%eax), %edi
	movl	-288(%ebp), %eax
	movl	1044(%eax), %esi
	movl	-288(%ebp), %eax
	movl	1040(%eax), %ebx
	movl	-288(%ebp), %eax
	flds	1036(%eax)
	flds	.LC30
	faddp	%st, %st(1)
	fxch	%st(1)
	movl	-288(%ebp), %eax
	movl	1032(%eax), %edx
	movl	$0, 80(%esp)
	movl	$.LC7, 76(%esp)
	movl	%ecx, 72(%esp)
	movl	-548(%ebp), %eax
	movl	%eax, 68(%esp)
	movl	$4, 64(%esp)
	movl	-540(%ebp), %eax
	movl	%eax, 60(%esp)
	movl	-612(%ebp), %ecx
	movl	%ecx, 56(%esp)
	movl	$0x00000000, %eax
	movl	%eax, 52(%esp)
	movl	-608(%ebp), %eax
	movl	%eax, 48(%esp)
	movl	-604(%ebp), %ecx
	movl	%ecx, 44(%esp)
	movl	-600(%ebp), %eax
	movl	%eax, 40(%esp)
	fstps	36(%esp)
	movl	-596(%ebp), %ecx
	movl	%ecx, 32(%esp)
	movl	-592(%ebp), %eax
	movl	%eax, 28(%esp)
	movl	$0x00000000, %eax
	movl	%eax, 24(%esp)
	movl	%edi, 20(%esp)
	movl	%esi, 16(%esp)
	movl	%ebx, 12(%esp)
	fstps	8(%esp)
	movl	%edx, 4(%esp)
	movl	-544(%ebp), %eax
	movl	%eax, (%esp)
	call	convertsplit
	movl	%eax, -544(%ebp)
	movl	-544(%ebp), %eax
	movl	%eax, -452(%ebp)
	.loc 1 413 0
	movl	-288(%ebp), %eax
	leal	768(%eax), %ecx
	movl	-288(%ebp), %eax
	addl	$768, %eax
	movl	%eax, -588(%ebp)
	movl	-288(%ebp), %eax
	movl	1048(%eax), %edx
	movl	%edx, -584(%ebp)
	movl	-288(%ebp), %eax
	movl	1044(%eax), %edx
	movl	%edx, -580(%ebp)
	movl	-288(%ebp), %eax
	movl	1040(%eax), %edx
	movl	%edx, -576(%ebp)
	.loc 1 414 0
	movl	-304(%ebp), %eax
	flds	260(%eax)
	movl	-296(%ebp), %eax
	flds	260(%eax)
	fsubrp	%st, %st(1)
	movl	-288(%ebp), %eax
	flds	1036(%eax)
	fadds	-312(%ebp)
	fxch	%st(1)
	fucompp
	fnstsw	%ax
	sahf
	setae	%al
	.loc 1 413 0
	testb	%al, %al
	je	.L25
	.loc 1 414 0
	movl	-304(%ebp), %eax
	flds	260(%eax)
	movl	-296(%ebp), %eax
	flds	260(%eax)
	.loc 1 413 0
	fsubrp	%st, %st(1)
	jmp	.L26
.L25:
	.loc 1 414 0
	movl	-288(%ebp), %eax
	flds	1036(%eax)
	.loc 1 413 0
	fadds	-312(%ebp)
.L26:
	movl	-288(%ebp), %eax
	movl	1032(%eax), %edx
	movl	%edx, -572(%ebp)
	movl	-288(%ebp), %eax
	addl	$768, %eax
	movl	%eax, -568(%ebp)
	movl	-288(%ebp), %eax
	movl	1048(%eax), %edi
	movl	-288(%ebp), %eax
	movl	1044(%eax), %esi
	movl	-288(%ebp), %eax
	movl	1040(%eax), %ebx
	movl	-288(%ebp), %eax
	flds	1036(%eax)
	flds	.LC30
	faddp	%st, %st(1)
	fxch	%st(1)
	movl	-288(%ebp), %eax
	movl	1032(%eax), %edx
	movl	$1, 80(%esp)
	movl	$.LC7, 76(%esp)
	movl	%ecx, 72(%esp)
	movl	-548(%ebp), %eax
	movl	%eax, 68(%esp)
	movl	$-1, 64(%esp)
	movl	-540(%ebp), %eax
	movl	%eax, 60(%esp)
	movl	-588(%ebp), %ecx
	movl	%ecx, 56(%esp)
	movl	$0x00000000, %eax
	movl	%eax, 52(%esp)
	movl	-584(%ebp), %eax
	movl	%eax, 48(%esp)
	movl	-580(%ebp), %ecx
	movl	%ecx, 44(%esp)
	movl	-576(%ebp), %eax
	movl	%eax, 40(%esp)
	fstps	36(%esp)
	movl	-572(%ebp), %ecx
	movl	%ecx, 32(%esp)
	movl	-568(%ebp), %eax
	movl	%eax, 28(%esp)
	movl	$0x00000000, %eax
	movl	%eax, 24(%esp)
	movl	%edi, 20(%esp)
	movl	%esi, 16(%esp)
	movl	%ebx, 12(%esp)
	fstps	8(%esp)
	movl	%edx, 4(%esp)
	movl	-544(%ebp), %eax
	movl	%eax, (%esp)
	call	convertsplit
	movl	%eax, -544(%ebp)
	movl	-544(%ebp), %eax
	movl	%eax, -448(%ebp)
	.loc 1 418 0
	movl	-288(%ebp), %eax
	leal	768(%eax), %esi
	.loc 1 420 0
	movl	-288(%ebp), %eax
	flds	1036(%eax)
	fadds	-312(%ebp)
	movl	-296(%ebp), %eax
	flds	260(%eax)
	faddp	%st, %st(1)
	movl	-304(%ebp), %eax
	flds	260(%eax)
	fsubrp	%st, %st(1)
	fldz
	fucompp
	fnstsw	%ax
	testb	$5, %ah
	sete	%al
	.loc 1 418 0
	testb	%al, %al
	je	.L27
	fldz
	jmp	.L28
.L27:
	.loc 1 420 0
	movl	-288(%ebp), %eax
	flds	1036(%eax)
	fadds	-312(%ebp)
	movl	-296(%ebp), %eax
	flds	260(%eax)
	faddp	%st, %st(1)
	movl	-304(%ebp), %eax
	flds	260(%eax)
	.loc 1 418 0
	fsubrp	%st, %st(1)
.L28:
	movl	-288(%ebp), %eax
	leal	768(%eax), %edi
	movl	-288(%ebp), %eax
	movl	1048(%eax), %ebx
	movl	-288(%ebp), %eax
	movl	1044(%eax), %ecx
	movl	-288(%ebp), %eax
	movl	1040(%eax), %edx
	movl	-304(%ebp), %eax
	flds	260(%eax)
	movl	-296(%ebp), %eax
	flds	260(%eax)
	fsubrp	%st, %st(1)
	movl	-288(%ebp), %eax
	flds	1036(%eax)
	fadds	-312(%ebp)
	fxch	%st(1)
	fucompp
	fnstsw	%ax
	sahf
	setae	%al
	testb	%al, %al
	je	.L29
	movl	-304(%ebp), %eax
	flds	260(%eax)
	movl	-296(%ebp), %eax
	flds	260(%eax)
	fsubrp	%st, %st(1)
	fxch	%st(1)
	jmp	.L30
.L29:
	movl	-288(%ebp), %eax
	flds	1036(%eax)
	fadds	-312(%ebp)
	fxch	%st(1)
.L30:
	movl	-288(%ebp), %eax
	movl	1032(%eax), %eax
	movl	$1, 80(%esp)
	movl	$.LC7, 76(%esp)
	movl	%esi, 72(%esp)
	movl	-548(%ebp), %esi
	movl	%esi, 68(%esp)
	movl	$-1, 64(%esp)
	movl	-540(%ebp), %esi
	movl	%esi, 60(%esp)
	movl	$.LC1, 56(%esp)
	movl	$0x00000000, %esi
	movl	%esi, 52(%esp)
	movl	$0x42b40000, %esi
	movl	%esi, 48(%esp)
	movl	$0x42b40000, %esi
	movl	%esi, 44(%esp)
	movl	$0x00000000, %esi
	movl	%esi, 40(%esp)
	fstps	36(%esp)
	movl	$0x00000000, %esi
	movl	%esi, 32(%esp)
	movl	%edi, 28(%esp)
	movl	$0x00000000, %esi
	movl	%esi, 24(%esp)
	movl	%ebx, 20(%esp)
	movl	%ecx, 16(%esp)
	movl	%edx, 12(%esp)
	fstps	8(%esp)
	movl	%eax, 4(%esp)
	movl	-544(%ebp), %eax
	movl	%eax, (%esp)
	call	convertsplit
	movl	%eax, -544(%ebp)
	movl	-544(%ebp), %eax
	movl	%eax, -444(%ebp)
	.loc 1 424 0
	movl	-288(%ebp), %eax
	flds	1036(%eax)
	fadds	-312(%ebp)
	movl	-296(%ebp), %eax
	flds	260(%eax)
	faddp	%st, %st(1)
	movl	-304(%ebp), %eax
	flds	260(%eax)
	fsubrp	%st, %st(1)
	fldz
	fucompp
	fnstsw	%ax
	testb	$5, %ah
	sete	%al
	.loc 1 423 0
	testb	%al, %al
	je	.L31
	fldz
	jmp	.L32
.L31:
	.loc 1 424 0
	movl	-288(%ebp), %eax
	flds	1036(%eax)
	fadds	-312(%ebp)
	movl	-296(%ebp), %eax
	flds	260(%eax)
	faddp	%st, %st(1)
	movl	-304(%ebp), %eax
	flds	260(%eax)
	.loc 1 423 0
	fsubrp	%st, %st(1)
.L32:
	movl	$1, 80(%esp)
	movl	$.LC7, 76(%esp)
	movl	$.LC1, 72(%esp)
	movl	-548(%ebp), %eax
	movl	%eax, 68(%esp)
	movl	$-1, 64(%esp)
	movl	-540(%ebp), %eax
	movl	%eax, 60(%esp)
	movl	$.LC1, 56(%esp)
	movl	$0x00000000, %eax
	movl	%eax, 52(%esp)
	movl	$0x42b40000, %eax
	movl	%eax, 48(%esp)
	movl	$0x42b40000, %eax
	movl	%eax, 44(%esp)
	movl	$0x00000000, %eax
	movl	%eax, 40(%esp)
	movl	$0x00000000, %eax
	movl	%eax, 36(%esp)
	movl	$0x00000000, %eax
	movl	%eax, 32(%esp)
	movl	$.LC1, 28(%esp)
	movl	$0x00000000, %eax
	movl	%eax, 24(%esp)
	movl	$0x42b40000, %eax
	movl	%eax, 20(%esp)
	movl	$0x42b40000, %eax
	movl	%eax, 16(%esp)
	movl	$0x00000000, %eax
	movl	%eax, 12(%esp)
	fstps	8(%esp)
	movl	$0x00000000, %eax
	movl	%eax, 4(%esp)
	movl	-544(%ebp), %eax
	movl	%eax, (%esp)
	call	convertsplit
	movl	%eax, -544(%ebp)
	movl	-544(%ebp), %eax
	movl	%eax, -440(%ebp)
	.loc 1 428 0
	movl	-548(%ebp), %eax
	movl	%eax, 8(%esp)
	movl	$.LC5, 4(%esp)
	movl	-544(%ebp), %eax
	movl	%eax, (%esp)
	call	addCommandString
	movl	%eax, -544(%ebp)
	.loc 1 429 0
	movl	-548(%ebp), %eax
	movl	%eax, 8(%esp)
	movl	$.LC5, 4(%esp)
	movl	-544(%ebp), %eax
	movl	%eax, (%esp)
	call	addCommandString
	movl	%eax, -544(%ebp)
	.loc 1 430 0
	movl	-548(%ebp), %eax
	movl	%eax, 8(%esp)
	movl	$.LC5, 4(%esp)
	movl	-544(%ebp), %eax
	movl	%eax, (%esp)
	call	addCommandString
	movl	%eax, -544(%ebp)
	.loc 1 431 0
	movl	-548(%ebp), %eax
	movl	%eax, 8(%esp)
	movl	$.LC9, 4(%esp)
	movl	-544(%ebp), %eax
	movl	%eax, (%esp)
	call	addCommandString
	movl	%eax, -544(%ebp)
	.loc 1 433 0
	movl	-460(%ebp), %eax
	movl	%eax, 4(%esp)
	movl	-540(%ebp), %eax
	movl	%eax, (%esp)
	call	blendCorner3
	.loc 1 434 0
	movl	-456(%ebp), %eax
	movl	%eax, 4(%esp)
	movl	-540(%ebp), %eax
	movl	%eax, (%esp)
	call	blendCorner3
	.loc 1 435 0
	movl	-452(%ebp), %eax
	movl	%eax, 4(%esp)
	movl	-540(%ebp), %eax
	movl	%eax, (%esp)
	call	blendCorner3
	.loc 1 436 0
	movl	-448(%ebp), %eax
	movl	%eax, 4(%esp)
	movl	-540(%ebp), %eax
	movl	%eax, (%esp)
	call	blendCorner3
	.loc 1 437 0
	movl	-444(%ebp), %eax
	movl	%eax, 4(%esp)
	movl	-540(%ebp), %eax
	movl	%eax, (%esp)
	call	blendCorner3
	.loc 1 438 0
	movl	-440(%ebp), %eax
	movl	%eax, 4(%esp)
	movl	-540(%ebp), %eax
	movl	%eax, (%esp)
	call	blendCorner3
	.loc 1 439 0
	movl	-548(%ebp), %eax
	movl	%eax, 8(%esp)
	movl	$.LC31, 4(%esp)
	movl	-544(%ebp), %eax
	movl	%eax, (%esp)
	call	addCommandString
	movl	%eax, -544(%ebp)
	.loc 1 440 0
	movl	-544(%ebp), %eax
	.loc 1 441 0
	movl	-28(%ebp), %edx
	xorl	%gs:20, %edx
	je	.L34
	call	__stack_chk_fail
.L34:
	addl	$892, %esp
	popl	%ebx
	popl	%esi
	popl	%edi
	popl	%ebp
	ret
	.cfi_endproc
.LFE1:
	.size	expandSubPathKatrineOut, .-expandSubPathKatrineOut
	.section	.rodata
	.align 8
.LC2:
	.long	-1717986918
	.long	1072273817
	.align 8
.LC10:
	.long	1717986918
	.long	1072850534
	.align 4
.LC12:
	.long	1120403456
	.align 4
.LC26:
	.long	1093664768
	.align 4
.LC30:
	.long	1112014848
	.text
.Letext0:
	.section	.note.GNU-stack,"",@progbits
