	.file	"scene.c"
	.text
.Ltext0:
	.cfi_sections	.debug_frame
	.comm	initrobot,4,4
	.comm	trobot,4,4
	.comm	tworkcell,4,4
	.comm	tplant,4,4
	.comm	newtau,4,4
	.local	Scene
	.comm	Scene,5708,32
.globl scene
	.data
	.align 4
	.type	scene, @object
	.size	scene, 4
scene:
	.long	Scene
	.local	boneId
	.comm	boneId,4,4
	.local	GEID
	.comm	GEID,4,4
	.local	GDID
	.comm	GDID,4,4
	.local	GBID
	.comm	GBID,4,4
	.local	GCID
	.comm	GCID,4,4
	.local	GAID
	.comm	GAID,4,4
	.align 32
	.type	redMaterial, @object
	.size	redMaterial, 52
redMaterial:
	.long	1065353216
	.long	0
	.long	0
	.long	1065353216
	.long	1065353216
	.long	0
	.long	0
	.long	1065353216
	.long	1065353216
	.long	0
	.long	0
	.long	1065353216
	.long	1065353216
	.align 32
	.type	floorMaterial, @object
	.size	floorMaterial, 52
floorMaterial:
	.long	1058642330
	.long	1058642330
	.long	1058642330
	.long	1065353216
	.long	1058642330
	.long	1058642330
	.long	1058642330
	.long	1065353216
	.long	0
	.long	0
	.long	0
	.long	1065353216
	.long	1065353216
	.align 32
	.type	woodMaterial, @object
	.size	woodMaterial, 52
woodMaterial:
	.long	1065353216
	.long	1065353216
	.long	0
	.long	1065353216
	.long	1065353216
	.long	1065353216
	.long	0
	.long	1065353216
	.long	0
	.long	0
	.long	0
	.long	1065353216
	.long	0
	.align 32
	.type	mpnMaterial, @object
	.size	mpnMaterial, 52
mpnMaterial:
	.long	0
	.long	1057721227
	.long	1061997773
	.long	1061158912
	.long	0
	.long	1057721227
	.long	1061997773
	.long	1065353216
	.long	0
	.long	1057721227
	.long	1061997773
	.long	1065353216
	.long	1123942400
	.align 32
	.type	armMaterial, @object
	.size	armMaterial, 52
armMaterial:
	.long	1063675494
	.long	1063675494
	.long	1063675494
	.long	1058642330
	.long	1063675494
	.long	1063675494
	.long	1063675494
	.long	1058642330
	.long	1045220557
	.long	1045220557
	.long	1045220557
	.long	1058642330
	.long	1036831949
	.align 32
	.type	keyMaterial, @object
	.size	keyMaterial, 52
keyMaterial:
	.long	1092616192
	.long	1092616192
	.long	1092616192
	.long	1092616192
	.long	1092616192
	.long	1092616192
	.long	1092616192
	.long	1092616192
	.long	1092616192
	.long	1092616192
	.long	1092616192
	.long	1092616192
	.long	1123942400
	.align 4
	.type	currentmpnColor, @object
	.size	currentmpnColor, 12
currentmpnColor:
	.long	1065353216
	.long	1065353216
	.long	1065353216
	.align 32
	.type	currentmpnMaterial, @object
	.size	currentmpnMaterial, 52
currentmpnMaterial:
	.long	1063675494
	.long	0
	.long	0
	.long	1065353216
	.long	1063675494
	.long	0
	.long	0
	.long	1065353216
	.long	1063675494
	.long	0
	.long	0
	.long	1065353216
	.long	1065353216
	.text
	.type	setmpnMaterial, @function
setmpnMaterial:
.LFB0:
	.file 1 "scene.c"
	.loc 1 29 0
	.cfi_startproc
	pushl	%ebp
.LCFI0:
	.cfi_def_cfa_offset 8
	movl	%esp, %ebp
	.cfi_offset 5, -8
.LCFI1:
	.cfi_def_cfa_register 5
	call	mcount
	.loc 1 30 0
	movl	8(%ebp), %eax
	movl	%eax, currentmpnMaterial
	movl	12(%ebp), %eax
	movl	%eax, currentmpnMaterial+4
	movl	16(%ebp), %eax
	movl	%eax, currentmpnMaterial+8
	movl	20(%ebp), %eax
	movl	%eax, currentmpnMaterial+12
	movl	24(%ebp), %eax
	movl	%eax, currentmpnMaterial+16
	movl	28(%ebp), %eax
	movl	%eax, currentmpnMaterial+20
	movl	32(%ebp), %eax
	movl	%eax, currentmpnMaterial+24
	movl	36(%ebp), %eax
	movl	%eax, currentmpnMaterial+28
	movl	40(%ebp), %eax
	movl	%eax, currentmpnMaterial+32
	movl	44(%ebp), %eax
	movl	%eax, currentmpnMaterial+36
	movl	48(%ebp), %eax
	movl	%eax, currentmpnMaterial+40
	movl	52(%ebp), %eax
	movl	%eax, currentmpnMaterial+44
	movl	56(%ebp), %eax
	movl	%eax, currentmpnMaterial+48
	.loc 1 31 0
	movl	24(%ebp), %eax
	movl	%eax, currentmpnColor
	.loc 1 32 0
	movl	28(%ebp), %eax
	movl	%eax, currentmpnColor+4
	.loc 1 33 0
	movl	32(%ebp), %eax
	movl	%eax, currentmpnColor+8
	.loc 1 34 0
	popl	%ebp
	ret
	.cfi_endproc
.LFE0:
	.size	setmpnMaterial, .-setmpnMaterial
	.type	newBone, @function
newBone:
.LFB1:
	.loc 1 38 0
	.cfi_startproc
	pushl	%ebp
.LCFI2:
	.cfi_def_cfa_offset 8
	movl	%esp, %ebp
	.cfi_offset 5, -8
.LCFI3:
	.cfi_def_cfa_register 5
	subl	$40, %esp
	call	mcount
	.loc 1 39 0
	movl	boneId, %eax
	movl	8(%ebp), %edx
	movl	%eax, (%edx)
	addl	$1, %eax
	movl	%eax, boneId
	.loc 1 40 0
	movl	8(%ebp), %eax
	movl	28(%ebp), %edx
	movl	%edx, 108(%eax)
	.loc 1 41 0
	movl	8(%ebp), %eax
	movl	32(%ebp), %edx
	movl	%edx, 112(%eax)
	.loc 1 42 0
	movl	8(%ebp), %eax
	movl	36(%ebp), %edx
	movl	%edx, 116(%eax)
	.loc 1 43 0
	movl	8(%ebp), %eax
	movl	40(%ebp), %edx
	movl	%edx, 188(%eax)
	.loc 1 44 0
	movl	currentmpnColor, %edx
	movl	8(%ebp), %eax
	movl	%edx, 120(%eax)
	.loc 1 45 0
	movl	currentmpnColor+4, %edx
	movl	8(%ebp), %eax
	movl	%edx, 124(%eax)
	.loc 1 46 0
	movl	currentmpnColor+8, %edx
	movl	8(%ebp), %eax
	movl	%edx, 128(%eax)
	.loc 1 47 0
	flds	currentmpnMaterial
	fldl	.LC0
	fmulp	%st, %st(1)
	fstps	-12(%ebp)
	flds	-12(%ebp)
	movl	8(%ebp), %eax
	fstps	132(%eax)
	.loc 1 48 0
	flds	currentmpnMaterial+4
	fldl	.LC0
	fmulp	%st, %st(1)
	fstps	-12(%ebp)
	flds	-12(%ebp)
	movl	8(%ebp), %eax
	fstps	136(%eax)
	.loc 1 49 0
	flds	currentmpnMaterial+8
	fldl	.LC0
	fmulp	%st, %st(1)
	fstps	-12(%ebp)
	flds	-12(%ebp)
	movl	8(%ebp), %eax
	fstps	140(%eax)
	.loc 1 50 0
	movl	currentmpnMaterial+12, %edx
	movl	8(%ebp), %eax
	movl	%edx, 144(%eax)
	.loc 1 52 0
	flds	currentmpnMaterial+16
	fldl	.LC0
	fmulp	%st, %st(1)
	fstps	-12(%ebp)
	flds	-12(%ebp)
	movl	8(%ebp), %eax
	fstps	148(%eax)
	.loc 1 53 0
	flds	currentmpnMaterial+20
	fldl	.LC0
	fmulp	%st, %st(1)
	fstps	-12(%ebp)
	flds	-12(%ebp)
	movl	8(%ebp), %eax
	fstps	152(%eax)
	.loc 1 54 0
	flds	currentmpnMaterial+24
	fldl	.LC0
	fmulp	%st, %st(1)
	fstps	-12(%ebp)
	flds	-12(%ebp)
	movl	8(%ebp), %eax
	fstps	156(%eax)
	.loc 1 55 0
	movl	currentmpnMaterial+28, %edx
	movl	8(%ebp), %eax
	movl	%edx, 160(%eax)
	.loc 1 57 0
	flds	currentmpnMaterial+32
	fldl	.LC1
	fmulp	%st, %st(1)
	fstps	-12(%ebp)
	flds	-12(%ebp)
	movl	8(%ebp), %eax
	fstps	164(%eax)
	.loc 1 58 0
	flds	currentmpnMaterial+36
	fldl	.LC1
	fmulp	%st, %st(1)
	fstps	-12(%ebp)
	flds	-12(%ebp)
	movl	8(%ebp), %eax
	fstps	168(%eax)
	.loc 1 59 0
	flds	currentmpnMaterial+40
	fldl	.LC1
	fmulp	%st, %st(1)
	fstps	-12(%ebp)
	flds	-12(%ebp)
	movl	8(%ebp), %eax
	fstps	172(%eax)
	.loc 1 60 0
	movl	currentmpnMaterial+44, %edx
	movl	8(%ebp), %eax
	movl	%edx, 176(%eax)
	.loc 1 62 0
	flds	currentmpnMaterial+48
	fldl	.LC1
	fmulp	%st, %st(1)
	fstps	-12(%ebp)
	flds	-12(%ebp)
	movl	8(%ebp), %eax
	fstps	180(%eax)
	.loc 1 63 0
	movl	8(%ebp), %eax
	leal	4(%eax), %edx
	movl	12(%ebp), %eax
	movl	%eax, 4(%esp)
	movl	%edx, (%esp)
	call	strcpy
	.loc 1 64 0
	movl	8(%ebp), %eax
	movl	16(%ebp), %edx
	movl	%edx, 96(%eax)
	.loc 1 65 0
	movl	8(%ebp), %eax
	movl	20(%ebp), %edx
	movl	%edx, 100(%eax)
	.loc 1 66 0
	movl	8(%ebp), %eax
	movl	24(%ebp), %edx
	movl	%edx, 104(%eax)
	.loc 1 67 0
	movl	8(%ebp), %eax
	movl	$0, 184(%eax)
	.loc 1 68 0
	leave
	ret
	.cfi_endproc
.LFE1:
	.size	newBone, .-newBone
	.section	.rodata
.LC8:
	.string	"Floor"
.LC11:
	.string	"Foot"
.LC12:
	.string	"Leg"
.LC14:
	.string	"Gantry"
.LC15:
	.string	"Gear A"
.LC18:
	.string	"Shoulder"
.LC19:
	.string	"Gear B"
.LC21:
	.string	"UpperArm"
.LC22:
	.string	"Gear C"
.LC25:
	.string	"LowerArm"
.LC31:
	.string	"LowerArm2"
.LC33:
	.string	"Gear D"
.LC36:
	.string	"Wrist"
.LC37:
	.string	"Gear E"
.LC39:
	.string	"Flange"
	.text
	.type	createRobotObjects, @function
createRobotObjects:
.LFB2:
	.loc 1 71 0
	.cfi_startproc
	pushl	%ebp
.LCFI4:
	.cfi_def_cfa_offset 8
	movl	%esp, %ebp
	.cfi_offset 5, -8
.LCFI5:
	.cfi_def_cfa_register 5
	subl	$72, %esp
	call	mcount
	.loc 1 72 0
	movl	$1, boneId
	.loc 1 73 0
	movl	floorMaterial, %eax
	movl	%eax, (%esp)
	movl	floorMaterial+4, %eax
	movl	%eax, 4(%esp)
	movl	floorMaterial+8, %eax
	movl	%eax, 8(%esp)
	movl	floorMaterial+12, %eax
	movl	%eax, 12(%esp)
	movl	floorMaterial+16, %eax
	movl	%eax, 16(%esp)
	movl	floorMaterial+20, %eax
	movl	%eax, 20(%esp)
	movl	floorMaterial+24, %eax
	movl	%eax, 24(%esp)
	movl	floorMaterial+28, %eax
	movl	%eax, 28(%esp)
	movl	floorMaterial+32, %eax
	movl	%eax, 32(%esp)
	movl	floorMaterial+36, %eax
	movl	%eax, 36(%esp)
	movl	floorMaterial+40, %eax
	movl	%eax, 40(%esp)
	movl	floorMaterial+44, %eax
	movl	%eax, 44(%esp)
	movl	floorMaterial+48, %eax
	movl	%eax, 48(%esp)
	call	setmpnMaterial
	.loc 1 74 0
	movl	8(%ebp), %eax
	flds	256(%eax)
	flds	.LC3
	faddp	%st, %st(1)
	movl	scene, %eax
	leal	4(%eax), %edx
	movl	$1, 32(%esp)
	fstps	28(%esp)
	movl	$0x42480000, %eax
	movl	%eax, 24(%esp)
	movl	$0x455ac000, %eax
	movl	%eax, 20(%esp)
	movl	$0xc4fa0000, %eax
	movl	%eax, 16(%esp)
	movl	$0xc4bb8000, %eax
	movl	%eax, 12(%esp)
	movl	$0xc4fa0000, %eax
	movl	%eax, 8(%esp)
	movl	$.LC8, 4(%esp)
	movl	%edx, (%esp)
	call	newBone
	.loc 1 75 0
	movl	mpnMaterial, %eax
	movl	%eax, (%esp)
	movl	mpnMaterial+4, %eax
	movl	%eax, 4(%esp)
	movl	mpnMaterial+8, %eax
	movl	%eax, 8(%esp)
	movl	mpnMaterial+12, %eax
	movl	%eax, 12(%esp)
	movl	mpnMaterial+16, %eax
	movl	%eax, 16(%esp)
	movl	mpnMaterial+20, %eax
	movl	%eax, 20(%esp)
	movl	mpnMaterial+24, %eax
	movl	%eax, 24(%esp)
	movl	mpnMaterial+28, %eax
	movl	%eax, 28(%esp)
	movl	mpnMaterial+32, %eax
	movl	%eax, 32(%esp)
	movl	mpnMaterial+36, %eax
	movl	%eax, 36(%esp)
	movl	mpnMaterial+40, %eax
	movl	%eax, 40(%esp)
	movl	mpnMaterial+44, %eax
	movl	%eax, 44(%esp)
	movl	mpnMaterial+48, %eax
	movl	%eax, 48(%esp)
	call	setmpnMaterial
	.loc 1 76 0
	movl	8(%ebp), %eax
	movl	%eax, (%esp)
	call	atoi
	cmpl	$399, %eax
	jle	.L6
	movl	8(%ebp), %eax
	movl	%eax, (%esp)
	call	atoi
	cmpl	$499, %eax
	jle	.L7
.L6:
	.loc 1 78 0
	movl	scene, %eax
	leal	196(%eax), %edx
	movl	$1, 32(%esp)
	movl	$0x43c80000, %eax
	movl	%eax, 28(%esp)
	movl	$0x00000000, %eax
	movl	%eax, 24(%esp)
	movl	$0x43c80000, %eax
	movl	%eax, 20(%esp)
	movl	$0x00000000, %eax
	movl	%eax, 16(%esp)
	movl	$0x00000000, %eax
	movl	%eax, 12(%esp)
	movl	$0x00000000, %eax
	movl	%eax, 8(%esp)
	movl	$.LC11, 4(%esp)
	movl	%edx, (%esp)
	call	newBone
	.loc 1 79 0
	movl	8(%ebp), %eax
	movl	260(%eax), %eax
	movl	scene, %edx
	leal	388(%edx), %ecx
	movl	$1, 32(%esp)
	movl	$0x43c80000, %edx
	movl	%edx, 28(%esp)
	movl	%eax, 24(%esp)
	movl	$0x43c80000, %eax
	movl	%eax, 20(%esp)
	movl	$0x00000000, %eax
	movl	%eax, 16(%esp)
	movl	$0x00000000, %eax
	movl	%eax, 12(%esp)
	movl	$0x00000000, %eax
	movl	%eax, 8(%esp)
	movl	$.LC12, 4(%esp)
	movl	%ecx, (%esp)
	call	newBone
	.loc 1 80 0
	movl	8(%ebp), %eax
	movl	256(%eax), %edx
	movl	8(%ebp), %eax
	movl	260(%eax), %eax
	movl	scene, %ecx
	addl	$580, %ecx
	movl	$1, 32(%esp)
	movl	%edx, 28(%esp)
	movl	$0x43970000, %edx
	movl	%edx, 24(%esp)
	movl	$0x43c80000, %edx
	movl	%edx, 20(%esp)
	movl	$0x00000000, %edx
	movl	%edx, 16(%esp)
	movl	%eax, 12(%esp)
	movl	$0x00000000, %eax
	movl	%eax, 8(%esp)
	movl	$.LC14, 4(%esp)
	movl	%ecx, (%esp)
	call	newBone
	.loc 1 82 0
	movl	redMaterial, %eax
	movl	%eax, (%esp)
	movl	redMaterial+4, %eax
	movl	%eax, 4(%esp)
	movl	redMaterial+8, %eax
	movl	%eax, 8(%esp)
	movl	redMaterial+12, %eax
	movl	%eax, 12(%esp)
	movl	redMaterial+16, %eax
	movl	%eax, 16(%esp)
	movl	redMaterial+20, %eax
	movl	%eax, 20(%esp)
	movl	redMaterial+24, %eax
	movl	%eax, 24(%esp)
	movl	redMaterial+28, %eax
	movl	%eax, 28(%esp)
	movl	redMaterial+32, %eax
	movl	%eax, 32(%esp)
	movl	redMaterial+36, %eax
	movl	%eax, 36(%esp)
	movl	redMaterial+40, %eax
	movl	%eax, 40(%esp)
	movl	redMaterial+44, %eax
	movl	%eax, 44(%esp)
	movl	redMaterial+48, %eax
	movl	%eax, 48(%esp)
	call	setmpnMaterial
	.loc 1 83 0
	movl	scene, %eax
	leal	1924(%eax), %edx
	movl	$1, 32(%esp)
	movl	$0x00000000, %eax
	movl	%eax, 28(%esp)
	movl	$0x00000000, %eax
	movl	%eax, 24(%esp)
	movl	$0x00000000, %eax
	movl	%eax, 20(%esp)
	movl	$0x00000000, %eax
	movl	%eax, 16(%esp)
	movl	$0x00000000, %eax
	movl	%eax, 12(%esp)
	movl	$0x00000000, %eax
	movl	%eax, 8(%esp)
	movl	$.LC15, 4(%esp)
	movl	%edx, (%esp)
	call	newBone
	.loc 1 84 0
	movl	scene, %eax
	movl	1924(%eax), %eax
	movl	%eax, GAID
	.loc 1 85 0
	movl	armMaterial, %eax
	movl	%eax, (%esp)
	movl	armMaterial+4, %eax
	movl	%eax, 4(%esp)
	movl	armMaterial+8, %eax
	movl	%eax, 8(%esp)
	movl	armMaterial+12, %eax
	movl	%eax, 12(%esp)
	movl	armMaterial+16, %eax
	movl	%eax, 16(%esp)
	movl	armMaterial+20, %eax
	movl	%eax, 20(%esp)
	movl	armMaterial+24, %eax
	movl	%eax, 24(%esp)
	movl	armMaterial+28, %eax
	movl	%eax, 28(%esp)
	movl	armMaterial+32, %eax
	movl	%eax, 32(%esp)
	movl	armMaterial+36, %eax
	movl	%eax, 36(%esp)
	movl	armMaterial+40, %eax
	movl	%eax, 40(%esp)
	movl	armMaterial+44, %eax
	movl	%eax, 44(%esp)
	movl	armMaterial+48, %eax
	movl	%eax, 48(%esp)
	call	setmpnMaterial
	.loc 1 86 0
	movl	scene, %eax
	leal	772(%eax), %edx
	movl	$1, 32(%esp)
	movl	$0x43c80000, %eax
	movl	%eax, 28(%esp)
	movl	$0x44228000, %eax
	movl	%eax, 24(%esp)
	movl	$0x43c80000, %eax
	movl	%eax, 20(%esp)
	movl	$0x43480000, %eax
	movl	%eax, 16(%esp)
	movl	$0x43970000, %eax
	movl	%eax, 12(%esp)
	movl	$0x00000000, %eax
	movl	%eax, 8(%esp)
	movl	$.LC18, 4(%esp)
	movl	%edx, (%esp)
	call	newBone
	.loc 1 89 0
	movl	redMaterial, %eax
	movl	%eax, (%esp)
	movl	redMaterial+4, %eax
	movl	%eax, 4(%esp)
	movl	redMaterial+8, %eax
	movl	%eax, 8(%esp)
	movl	redMaterial+12, %eax
	movl	%eax, 12(%esp)
	movl	redMaterial+16, %eax
	movl	%eax, 16(%esp)
	movl	redMaterial+20, %eax
	movl	%eax, 20(%esp)
	movl	redMaterial+24, %eax
	movl	%eax, 24(%esp)
	movl	redMaterial+28, %eax
	movl	%eax, 28(%esp)
	movl	redMaterial+32, %eax
	movl	%eax, 32(%esp)
	movl	redMaterial+36, %eax
	movl	%eax, 36(%esp)
	movl	redMaterial+40, %eax
	movl	%eax, 40(%esp)
	movl	redMaterial+44, %eax
	movl	%eax, 44(%esp)
	movl	redMaterial+48, %eax
	movl	%eax, 48(%esp)
	call	setmpnMaterial
	.loc 1 90 0
	movl	8(%ebp), %eax
	flds	264(%eax)
	flds	.LC13
	fsubrp	%st, %st(1)
	movl	scene, %eax
	leal	2116(%eax), %edx
	movl	$1, 32(%esp)
	movl	$0x00000000, %eax
	movl	%eax, 28(%esp)
	movl	$0x00000000, %eax
	movl	%eax, 24(%esp)
	movl	$0x00000000, %eax
	movl	%eax, 20(%esp)
	movl	$0x43c80000, %eax
	movl	%eax, 16(%esp)
	fstps	12(%esp)
	movl	$0x43480000, %eax
	movl	%eax, 8(%esp)
	movl	$.LC19, 4(%esp)
	movl	%edx, (%esp)
	call	newBone
	.loc 1 92 0
	movl	scene, %eax
	movl	$0x00000000, %edx
	movl	%edx, 2208(%eax)
	.loc 1 93 0
	movl	scene, %eax
	movl	2116(%eax), %eax
	movl	%eax, GBID
	.loc 1 94 0
	movl	armMaterial, %eax
	movl	%eax, (%esp)
	movl	armMaterial+4, %eax
	movl	%eax, 4(%esp)
	movl	armMaterial+8, %eax
	movl	%eax, 8(%esp)
	movl	armMaterial+12, %eax
	movl	%eax, 12(%esp)
	movl	armMaterial+16, %eax
	movl	%eax, 16(%esp)
	movl	armMaterial+20, %eax
	movl	%eax, 20(%esp)
	movl	armMaterial+24, %eax
	movl	%eax, 24(%esp)
	movl	armMaterial+28, %eax
	movl	%eax, 28(%esp)
	movl	armMaterial+32, %eax
	movl	%eax, 32(%esp)
	movl	armMaterial+36, %eax
	movl	%eax, 36(%esp)
	movl	armMaterial+40, %eax
	movl	%eax, 40(%esp)
	movl	armMaterial+44, %eax
	movl	%eax, 44(%esp)
	movl	armMaterial+48, %eax
	movl	%eax, 48(%esp)
	call	setmpnMaterial
	.loc 1 95 0
	movl	8(%ebp), %eax
	movl	324(%eax), %eax
	movl	scene, %edx
	leal	964(%edx), %ecx
	movl	$2, 32(%esp)
	movl	$0x42f00000, %edx
	movl	%edx, 28(%esp)
	movl	$0x42f00000, %edx
	movl	%edx, 24(%esp)
	movl	%eax, 20(%esp)
	movl	$0x00000000, %eax
	movl	%eax, 16(%esp)
	movl	$0x00000000, %eax
	movl	%eax, 12(%esp)
	movl	$0x00000000, %eax
	movl	%eax, 8(%esp)
	movl	$.LC21, 4(%esp)
	movl	%ecx, (%esp)
	call	newBone
	.loc 1 98 0
	movl	redMaterial, %eax
	movl	%eax, (%esp)
	movl	redMaterial+4, %eax
	movl	%eax, 4(%esp)
	movl	redMaterial+8, %eax
	movl	%eax, 8(%esp)
	movl	redMaterial+12, %eax
	movl	%eax, 12(%esp)
	movl	redMaterial+16, %eax
	movl	%eax, 16(%esp)
	movl	redMaterial+20, %eax
	movl	%eax, 20(%esp)
	movl	redMaterial+24, %eax
	movl	%eax, 24(%esp)
	movl	redMaterial+28, %eax
	movl	%eax, 28(%esp)
	movl	redMaterial+32, %eax
	movl	%eax, 32(%esp)
	movl	redMaterial+36, %eax
	movl	%eax, 36(%esp)
	movl	redMaterial+40, %eax
	movl	%eax, 40(%esp)
	movl	redMaterial+44, %eax
	movl	%eax, 44(%esp)
	movl	redMaterial+48, %eax
	movl	%eax, 48(%esp)
	call	setmpnMaterial
	.loc 1 99 0
	movl	8(%ebp), %eax
	movl	324(%eax), %eax
	movl	scene, %edx
	leal	2308(%edx), %ecx
	movl	$1, 32(%esp)
	movl	$0x00000000, %edx
	movl	%edx, 28(%esp)
	movl	$0x00000000, %edx
	movl	%edx, 24(%esp)
	movl	$0x00000000, %edx
	movl	%edx, 20(%esp)
	movl	$0x00000000, %edx
	movl	%edx, 16(%esp)
	movl	$0x00000000, %edx
	movl	%edx, 12(%esp)
	movl	%eax, 8(%esp)
	movl	$.LC22, 4(%esp)
	movl	%ecx, (%esp)
	call	newBone
	.loc 1 101 0
	movl	scene, %eax
	movl	$0xc2b40000, %edx
	movl	%edx, 2400(%eax)
	.loc 1 102 0
	movl	scene, %eax
	movl	2308(%eax), %eax
	movl	%eax, GCID
	.loc 1 103 0
	movl	armMaterial, %eax
	movl	%eax, (%esp)
	movl	armMaterial+4, %eax
	movl	%eax, 4(%esp)
	movl	armMaterial+8, %eax
	movl	%eax, 8(%esp)
	movl	armMaterial+12, %eax
	movl	%eax, 12(%esp)
	movl	armMaterial+16, %eax
	movl	%eax, 16(%esp)
	movl	armMaterial+20, %eax
	movl	%eax, 20(%esp)
	movl	armMaterial+24, %eax
	movl	%eax, 24(%esp)
	movl	armMaterial+28, %eax
	movl	%eax, 28(%esp)
	movl	armMaterial+32, %eax
	movl	%eax, 32(%esp)
	movl	armMaterial+36, %eax
	movl	%eax, 36(%esp)
	movl	armMaterial+40, %eax
	movl	%eax, 40(%esp)
	movl	armMaterial+44, %eax
	movl	%eax, 44(%esp)
	movl	armMaterial+48, %eax
	movl	%eax, 48(%esp)
	call	setmpnMaterial
	.loc 1 104 0
	movl	8(%ebp), %eax
	movl	380(%eax), %eax
	movl	scene, %edx
	leal	1156(%edx), %ecx
	movl	$2, 32(%esp)
	movl	$0x42480000, %edx
	movl	%edx, 28(%esp)
	movl	$0x42c80000, %edx
	movl	%edx, 24(%esp)
	movl	%eax, 20(%esp)
	movl	$0x00000000, %eax
	movl	%eax, 16(%esp)
	movl	$0x00000000, %eax
	movl	%eax, 12(%esp)
	movl	$0x00000000, %eax
	movl	%eax, 8(%esp)
	movl	$.LC25, 4(%esp)
	movl	%ecx, (%esp)
	call	newBone
	.loc 1 106 0
	movl	8(%ebp), %eax
	flds	380(%eax)
	flds	.LC26
	fsubrp	%st, %st(1)
	movl	scene, %eax
	leal	1348(%eax), %edx
	movl	$1, 32(%esp)
	movl	$0x43480000, %eax
	movl	%eax, 28(%esp)
	movl	$0x430c0000, %eax
	movl	%eax, 24(%esp)
	movl	$0x435c0000, %eax
	movl	%eax, 20(%esp)
	movl	$0xc2c80000, %eax
	movl	%eax, 16(%esp)
	movl	$0xc28c0000, %eax
	movl	%eax, 12(%esp)
	fstps	8(%esp)
	movl	$.LC31, 4(%esp)
	movl	%edx, (%esp)
	call	newBone
	.loc 1 109 0
	movl	redMaterial, %eax
	movl	%eax, (%esp)
	movl	redMaterial+4, %eax
	movl	%eax, 4(%esp)
	movl	redMaterial+8, %eax
	movl	%eax, 8(%esp)
	movl	redMaterial+12, %eax
	movl	%eax, 12(%esp)
	movl	redMaterial+16, %eax
	movl	%eax, 16(%esp)
	movl	redMaterial+20, %eax
	movl	%eax, 20(%esp)
	movl	redMaterial+24, %eax
	movl	%eax, 24(%esp)
	movl	redMaterial+28, %eax
	movl	%eax, 28(%esp)
	movl	redMaterial+32, %eax
	movl	%eax, 32(%esp)
	movl	redMaterial+36, %eax
	movl	%eax, 36(%esp)
	movl	redMaterial+40, %eax
	movl	%eax, 40(%esp)
	movl	redMaterial+44, %eax
	movl	%eax, 44(%esp)
	movl	redMaterial+48, %eax
	movl	%eax, 48(%esp)
	call	setmpnMaterial
	.loc 1 110 0
	movl	scene, %eax
	leal	2500(%eax), %edx
	movl	$1, 32(%esp)
	movl	$0x00000000, %eax
	movl	%eax, 28(%esp)
	movl	$0x00000000, %eax
	movl	%eax, 24(%esp)
	movl	$0x00000000, %eax
	movl	%eax, 20(%esp)
	movl	$0x42c80000, %eax
	movl	%eax, 16(%esp)
	movl	$0x428c0000, %eax
	movl	%eax, 12(%esp)
	movl	$0x43160000, %eax
	movl	%eax, 8(%esp)
	movl	$.LC33, 4(%esp)
	movl	%edx, (%esp)
	call	newBone
	.loc 1 112 0
	movl	scene, %eax
	movl	2500(%eax), %eax
	movl	%eax, GDID
	.loc 1 113 0
	movl	armMaterial, %eax
	movl	%eax, (%esp)
	movl	armMaterial+4, %eax
	movl	%eax, 4(%esp)
	movl	armMaterial+8, %eax
	movl	%eax, 8(%esp)
	movl	armMaterial+12, %eax
	movl	%eax, 12(%esp)
	movl	armMaterial+16, %eax
	movl	%eax, 16(%esp)
	movl	armMaterial+20, %eax
	movl	%eax, 20(%esp)
	movl	armMaterial+24, %eax
	movl	%eax, 24(%esp)
	movl	armMaterial+28, %eax
	movl	%eax, 28(%esp)
	movl	armMaterial+32, %eax
	movl	%eax, 32(%esp)
	movl	armMaterial+36, %eax
	movl	%eax, 36(%esp)
	movl	armMaterial+40, %eax
	movl	%eax, 40(%esp)
	movl	armMaterial+44, %eax
	movl	%eax, 44(%esp)
	movl	armMaterial+48, %eax
	movl	%eax, 48(%esp)
	call	setmpnMaterial
	.loc 1 114 0
	movl	8(%ebp), %eax
	movl	436(%eax), %eax
	movl	scene, %edx
	leal	1540(%edx), %ecx
	movl	$2, 32(%esp)
	movl	$0x425c0000, %edx
	movl	%edx, 28(%esp)
	movl	$0x41dc0000, %edx
	movl	%edx, 24(%esp)
	movl	%eax, 20(%esp)
	movl	$0x00000000, %eax
	movl	%eax, 16(%esp)
	movl	$0x00000000, %eax
	movl	%eax, 12(%esp)
	movl	$0x00000000, %eax
	movl	%eax, 8(%esp)
	movl	$.LC36, 4(%esp)
	movl	%ecx, (%esp)
	call	newBone
	.loc 1 117 0
	movl	redMaterial, %eax
	movl	%eax, (%esp)
	movl	redMaterial+4, %eax
	movl	%eax, 4(%esp)
	movl	redMaterial+8, %eax
	movl	%eax, 8(%esp)
	movl	redMaterial+12, %eax
	movl	%eax, 12(%esp)
	movl	redMaterial+16, %eax
	movl	%eax, 16(%esp)
	movl	redMaterial+20, %eax
	movl	%eax, 20(%esp)
	movl	redMaterial+24, %eax
	movl	%eax, 24(%esp)
	movl	redMaterial+28, %eax
	movl	%eax, 28(%esp)
	movl	redMaterial+32, %eax
	movl	%eax, 32(%esp)
	movl	redMaterial+36, %eax
	movl	%eax, 36(%esp)
	movl	redMaterial+40, %eax
	movl	%eax, 40(%esp)
	movl	redMaterial+44, %eax
	movl	%eax, 44(%esp)
	movl	redMaterial+48, %eax
	movl	%eax, 48(%esp)
	call	setmpnMaterial
	.loc 1 118 0
	movl	8(%ebp), %eax
	movl	436(%eax), %eax
	movl	scene, %edx
	leal	2692(%edx), %ecx
	movl	$1, 32(%esp)
	movl	$0x00000000, %edx
	movl	%edx, 28(%esp)
	movl	$0x00000000, %edx
	movl	%edx, 24(%esp)
	movl	$0x00000000, %edx
	movl	%edx, 20(%esp)
	movl	$0x00000000, %edx
	movl	%edx, 16(%esp)
	movl	$0x00000000, %edx
	movl	%edx, 12(%esp)
	movl	%eax, 8(%esp)
	movl	$.LC37, 4(%esp)
	movl	%ecx, (%esp)
	call	newBone
	.loc 1 120 0
	movl	scene, %eax
	movl	$0x00000000, %edx
	movl	%edx, 2784(%eax)
	.loc 1 121 0
	movl	scene, %eax
	movl	2692(%eax), %eax
	movl	%eax, GEID
	.loc 1 122 0
	movl	armMaterial, %eax
	movl	%eax, (%esp)
	movl	armMaterial+4, %eax
	movl	%eax, 4(%esp)
	movl	armMaterial+8, %eax
	movl	%eax, 8(%esp)
	movl	armMaterial+12, %eax
	movl	%eax, 12(%esp)
	movl	armMaterial+16, %eax
	movl	%eax, 16(%esp)
	movl	armMaterial+20, %eax
	movl	%eax, 20(%esp)
	movl	armMaterial+24, %eax
	movl	%eax, 24(%esp)
	movl	armMaterial+28, %eax
	movl	%eax, 28(%esp)
	movl	armMaterial+32, %eax
	movl	%eax, 32(%esp)
	movl	armMaterial+36, %eax
	movl	%eax, 36(%esp)
	movl	armMaterial+40, %eax
	movl	%eax, 40(%esp)
	movl	armMaterial+44, %eax
	movl	%eax, 44(%esp)
	movl	armMaterial+48, %eax
	movl	%eax, 48(%esp)
	call	setmpnMaterial
	.loc 1 123 0
	movl	scene, %eax
	leal	1732(%eax), %edx
	movl	$2, 32(%esp)
	movl	$0x42200000, %eax
	movl	%eax, 28(%esp)
	movl	$0x42200000, %eax
	movl	%eax, 24(%esp)
	movl	$0x00000000, %eax
	movl	%eax, 20(%esp)
	movl	$0x00000000, %eax
	movl	%eax, 16(%esp)
	movl	$0x00000000, %eax
	movl	%eax, 12(%esp)
	movl	$0x00000000, %eax
	movl	%eax, 8(%esp)
	movl	$.LC39, 4(%esp)
	movl	%edx, (%esp)
	call	newBone
	.loc 1 76 0
	jmp	.L9
.L7:
	.loc 1 128 0
	movl	scene, %eax
	leal	196(%eax), %edx
	movl	$1, 32(%esp)
	movl	$0x42c80000, %eax
	movl	%eax, 28(%esp)
	movl	$0x00000000, %eax
	movl	%eax, 24(%esp)
	movl	$0x42c80000, %eax
	movl	%eax, 20(%esp)
	movl	$0x00000000, %eax
	movl	%eax, 16(%esp)
	movl	$0x00000000, %eax
	movl	%eax, 12(%esp)
	movl	$0x00000000, %eax
	movl	%eax, 8(%esp)
	movl	$.LC11, 4(%esp)
	movl	%edx, (%esp)
	call	newBone
	.loc 1 129 0
	movl	8(%ebp), %eax
	movl	260(%eax), %eax
	movl	scene, %edx
	leal	388(%edx), %ecx
	movl	$1, 32(%esp)
	movl	$0x42c80000, %edx
	movl	%edx, 28(%esp)
	movl	%eax, 24(%esp)
	movl	$0x42c80000, %eax
	movl	%eax, 20(%esp)
	movl	$0x00000000, %eax
	movl	%eax, 16(%esp)
	movl	$0x00000000, %eax
	movl	%eax, 12(%esp)
	movl	$0x00000000, %eax
	movl	%eax, 8(%esp)
	movl	$.LC12, 4(%esp)
	movl	%ecx, (%esp)
	call	newBone
	.loc 1 130 0
	movl	8(%ebp), %eax
	movl	256(%eax), %edx
	movl	8(%ebp), %eax
	movl	260(%eax), %eax
	movl	scene, %ecx
	addl	$580, %ecx
	movl	$1, 32(%esp)
	movl	%edx, 28(%esp)
	movl	$0x43970000, %edx
	movl	%edx, 24(%esp)
	movl	$0x42c80000, %edx
	movl	%edx, 20(%esp)
	movl	$0x00000000, %edx
	movl	%edx, 16(%esp)
	movl	%eax, 12(%esp)
	movl	$0x00000000, %eax
	movl	%eax, 8(%esp)
	movl	$.LC14, 4(%esp)
	movl	%ecx, (%esp)
	call	newBone
	.loc 1 132 0
	movl	redMaterial, %eax
	movl	%eax, (%esp)
	movl	redMaterial+4, %eax
	movl	%eax, 4(%esp)
	movl	redMaterial+8, %eax
	movl	%eax, 8(%esp)
	movl	redMaterial+12, %eax
	movl	%eax, 12(%esp)
	movl	redMaterial+16, %eax
	movl	%eax, 16(%esp)
	movl	redMaterial+20, %eax
	movl	%eax, 20(%esp)
	movl	redMaterial+24, %eax
	movl	%eax, 24(%esp)
	movl	redMaterial+28, %eax
	movl	%eax, 28(%esp)
	movl	redMaterial+32, %eax
	movl	%eax, 32(%esp)
	movl	redMaterial+36, %eax
	movl	%eax, 36(%esp)
	movl	redMaterial+40, %eax
	movl	%eax, 40(%esp)
	movl	redMaterial+44, %eax
	movl	%eax, 44(%esp)
	movl	redMaterial+48, %eax
	movl	%eax, 48(%esp)
	call	setmpnMaterial
	.loc 1 133 0
	movl	scene, %eax
	leal	1924(%eax), %edx
	movl	$1, 32(%esp)
	movl	$0x00000000, %eax
	movl	%eax, 28(%esp)
	movl	$0x00000000, %eax
	movl	%eax, 24(%esp)
	movl	$0x00000000, %eax
	movl	%eax, 20(%esp)
	movl	$0x00000000, %eax
	movl	%eax, 16(%esp)
	movl	$0x00000000, %eax
	movl	%eax, 12(%esp)
	movl	$0x00000000, %eax
	movl	%eax, 8(%esp)
	movl	$.LC15, 4(%esp)
	movl	%edx, (%esp)
	call	newBone
	.loc 1 134 0
	movl	scene, %eax
	movl	1924(%eax), %eax
	movl	%eax, GAID
	.loc 1 135 0
	movl	armMaterial, %eax
	movl	%eax, (%esp)
	movl	armMaterial+4, %eax
	movl	%eax, 4(%esp)
	movl	armMaterial+8, %eax
	movl	%eax, 8(%esp)
	movl	armMaterial+12, %eax
	movl	%eax, 12(%esp)
	movl	armMaterial+16, %eax
	movl	%eax, 16(%esp)
	movl	armMaterial+20, %eax
	movl	%eax, 20(%esp)
	movl	armMaterial+24, %eax
	movl	%eax, 24(%esp)
	movl	armMaterial+28, %eax
	movl	%eax, 28(%esp)
	movl	armMaterial+32, %eax
	movl	%eax, 32(%esp)
	movl	armMaterial+36, %eax
	movl	%eax, 36(%esp)
	movl	armMaterial+40, %eax
	movl	%eax, 40(%esp)
	movl	armMaterial+44, %eax
	movl	%eax, 44(%esp)
	movl	armMaterial+48, %eax
	movl	%eax, 48(%esp)
	call	setmpnMaterial
	.loc 1 136 0
	movl	scene, %eax
	leal	772(%eax), %edx
	movl	$1, 32(%esp)
	movl	$0x438c0000, %eax
	movl	%eax, 28(%esp)
	movl	$0x437a0000, %eax
	movl	%eax, 24(%esp)
	movl	$0x43480000, %eax
	movl	%eax, 20(%esp)
	movl	$0x43480000, %eax
	movl	%eax, 16(%esp)
	movl	$0x43970000, %eax
	movl	%eax, 12(%esp)
	movl	$0x00000000, %eax
	movl	%eax, 8(%esp)
	movl	$.LC18, 4(%esp)
	movl	%edx, (%esp)
	call	newBone
	.loc 1 139 0
	movl	redMaterial, %eax
	movl	%eax, (%esp)
	movl	redMaterial+4, %eax
	movl	%eax, 4(%esp)
	movl	redMaterial+8, %eax
	movl	%eax, 8(%esp)
	movl	redMaterial+12, %eax
	movl	%eax, 12(%esp)
	movl	redMaterial+16, %eax
	movl	%eax, 16(%esp)
	movl	redMaterial+20, %eax
	movl	%eax, 20(%esp)
	movl	redMaterial+24, %eax
	movl	%eax, 24(%esp)
	movl	redMaterial+28, %eax
	movl	%eax, 28(%esp)
	movl	redMaterial+32, %eax
	movl	%eax, 32(%esp)
	movl	redMaterial+36, %eax
	movl	%eax, 36(%esp)
	movl	redMaterial+40, %eax
	movl	%eax, 40(%esp)
	movl	redMaterial+44, %eax
	movl	%eax, 44(%esp)
	movl	redMaterial+48, %eax
	movl	%eax, 48(%esp)
	call	setmpnMaterial
	.loc 1 140 0
	movl	8(%ebp), %eax
	flds	264(%eax)
	flds	.LC13
	fsubrp	%st, %st(1)
	movl	scene, %eax
	leal	2116(%eax), %edx
	movl	$1, 32(%esp)
	movl	$0x00000000, %eax
	movl	%eax, 28(%esp)
	movl	$0x00000000, %eax
	movl	%eax, 24(%esp)
	movl	$0x00000000, %eax
	movl	%eax, 20(%esp)
	movl	$0x438c0000, %eax
	movl	%eax, 16(%esp)
	fstps	12(%esp)
	movl	$0x42480000, %eax
	movl	%eax, 8(%esp)
	movl	$.LC19, 4(%esp)
	movl	%edx, (%esp)
	call	newBone
	.loc 1 142 0
	movl	scene, %eax
	movl	$0x00000000, %edx
	movl	%edx, 2208(%eax)
	.loc 1 143 0
	movl	scene, %eax
	movl	2116(%eax), %eax
	movl	%eax, GBID
	.loc 1 144 0
	movl	armMaterial, %eax
	movl	%eax, (%esp)
	movl	armMaterial+4, %eax
	movl	%eax, 4(%esp)
	movl	armMaterial+8, %eax
	movl	%eax, 8(%esp)
	movl	armMaterial+12, %eax
	movl	%eax, 12(%esp)
	movl	armMaterial+16, %eax
	movl	%eax, 16(%esp)
	movl	armMaterial+20, %eax
	movl	%eax, 20(%esp)
	movl	armMaterial+24, %eax
	movl	%eax, 24(%esp)
	movl	armMaterial+28, %eax
	movl	%eax, 28(%esp)
	movl	armMaterial+32, %eax
	movl	%eax, 32(%esp)
	movl	armMaterial+36, %eax
	movl	%eax, 36(%esp)
	movl	armMaterial+40, %eax
	movl	%eax, 40(%esp)
	movl	armMaterial+44, %eax
	movl	%eax, 44(%esp)
	movl	armMaterial+48, %eax
	movl	%eax, 48(%esp)
	call	setmpnMaterial
	.loc 1 145 0
	movl	8(%ebp), %eax
	movl	324(%eax), %eax
	movl	scene, %edx
	leal	964(%edx), %ecx
	movl	$2, 32(%esp)
	movl	$0x42b40000, %edx
	movl	%edx, 28(%esp)
	movl	$0x42b40000, %edx
	movl	%edx, 24(%esp)
	movl	%eax, 20(%esp)
	movl	$0x00000000, %eax
	movl	%eax, 16(%esp)
	movl	$0x00000000, %eax
	movl	%eax, 12(%esp)
	movl	$0x00000000, %eax
	movl	%eax, 8(%esp)
	movl	$.LC21, 4(%esp)
	movl	%ecx, (%esp)
	call	newBone
	.loc 1 148 0
	movl	redMaterial, %eax
	movl	%eax, (%esp)
	movl	redMaterial+4, %eax
	movl	%eax, 4(%esp)
	movl	redMaterial+8, %eax
	movl	%eax, 8(%esp)
	movl	redMaterial+12, %eax
	movl	%eax, 12(%esp)
	movl	redMaterial+16, %eax
	movl	%eax, 16(%esp)
	movl	redMaterial+20, %eax
	movl	%eax, 20(%esp)
	movl	redMaterial+24, %eax
	movl	%eax, 24(%esp)
	movl	redMaterial+28, %eax
	movl	%eax, 28(%esp)
	movl	redMaterial+32, %eax
	movl	%eax, 32(%esp)
	movl	redMaterial+36, %eax
	movl	%eax, 36(%esp)
	movl	redMaterial+40, %eax
	movl	%eax, 40(%esp)
	movl	redMaterial+44, %eax
	movl	%eax, 44(%esp)
	movl	redMaterial+48, %eax
	movl	%eax, 48(%esp)
	call	setmpnMaterial
	.loc 1 149 0
	movl	8(%ebp), %eax
	movl	324(%eax), %eax
	movl	scene, %edx
	leal	2308(%edx), %ecx
	movl	$1, 32(%esp)
	movl	$0x00000000, %edx
	movl	%edx, 28(%esp)
	movl	$0x00000000, %edx
	movl	%edx, 24(%esp)
	movl	$0x00000000, %edx
	movl	%edx, 20(%esp)
	movl	$0x00000000, %edx
	movl	%edx, 16(%esp)
	movl	$0x00000000, %edx
	movl	%edx, 12(%esp)
	movl	%eax, 8(%esp)
	movl	$.LC22, 4(%esp)
	movl	%ecx, (%esp)
	call	newBone
	.loc 1 151 0
	movl	scene, %eax
	movl	$0xc2b40000, %edx
	movl	%edx, 2400(%eax)
	.loc 1 152 0
	movl	scene, %eax
	movl	2308(%eax), %eax
	movl	%eax, GCID
	.loc 1 153 0
	movl	armMaterial, %eax
	movl	%eax, (%esp)
	movl	armMaterial+4, %eax
	movl	%eax, 4(%esp)
	movl	armMaterial+8, %eax
	movl	%eax, 8(%esp)
	movl	armMaterial+12, %eax
	movl	%eax, 12(%esp)
	movl	armMaterial+16, %eax
	movl	%eax, 16(%esp)
	movl	armMaterial+20, %eax
	movl	%eax, 20(%esp)
	movl	armMaterial+24, %eax
	movl	%eax, 24(%esp)
	movl	armMaterial+28, %eax
	movl	%eax, 28(%esp)
	movl	armMaterial+32, %eax
	movl	%eax, 32(%esp)
	movl	armMaterial+36, %eax
	movl	%eax, 36(%esp)
	movl	armMaterial+40, %eax
	movl	%eax, 40(%esp)
	movl	armMaterial+44, %eax
	movl	%eax, 44(%esp)
	movl	armMaterial+48, %eax
	movl	%eax, 48(%esp)
	call	setmpnMaterial
	.loc 1 154 0
	movl	8(%ebp), %eax
	movl	380(%eax), %eax
	movl	scene, %edx
	leal	1156(%edx), %ecx
	movl	$2, 32(%esp)
	movl	$0x42200000, %edx
	movl	%edx, 28(%esp)
	movl	$0x42a00000, %edx
	movl	%edx, 24(%esp)
	movl	%eax, 20(%esp)
	movl	$0x00000000, %eax
	movl	%eax, 16(%esp)
	movl	$0x00000000, %eax
	movl	%eax, 12(%esp)
	movl	$0x00000000, %eax
	movl	%eax, 8(%esp)
	movl	$.LC25, 4(%esp)
	movl	%ecx, (%esp)
	call	newBone
	.loc 1 156 0
	movl	8(%ebp), %eax
	flds	380(%eax)
	flds	.LC26
	fsubrp	%st, %st(1)
	movl	scene, %eax
	leal	1348(%eax), %edx
	movl	$1, 32(%esp)
	movl	$0x43480000, %eax
	movl	%eax, 28(%esp)
	movl	$0x430c0000, %eax
	movl	%eax, 24(%esp)
	movl	$0x435c0000, %eax
	movl	%eax, 20(%esp)
	movl	$0xc2c80000, %eax
	movl	%eax, 16(%esp)
	movl	$0xc28c0000, %eax
	movl	%eax, 12(%esp)
	fstps	8(%esp)
	movl	$.LC31, 4(%esp)
	movl	%edx, (%esp)
	call	newBone
	.loc 1 159 0
	movl	redMaterial, %eax
	movl	%eax, (%esp)
	movl	redMaterial+4, %eax
	movl	%eax, 4(%esp)
	movl	redMaterial+8, %eax
	movl	%eax, 8(%esp)
	movl	redMaterial+12, %eax
	movl	%eax, 12(%esp)
	movl	redMaterial+16, %eax
	movl	%eax, 16(%esp)
	movl	redMaterial+20, %eax
	movl	%eax, 20(%esp)
	movl	redMaterial+24, %eax
	movl	%eax, 24(%esp)
	movl	redMaterial+28, %eax
	movl	%eax, 28(%esp)
	movl	redMaterial+32, %eax
	movl	%eax, 32(%esp)
	movl	redMaterial+36, %eax
	movl	%eax, 36(%esp)
	movl	redMaterial+40, %eax
	movl	%eax, 40(%esp)
	movl	redMaterial+44, %eax
	movl	%eax, 44(%esp)
	movl	redMaterial+48, %eax
	movl	%eax, 48(%esp)
	call	setmpnMaterial
	.loc 1 160 0
	movl	scene, %eax
	leal	2500(%eax), %edx
	movl	$1, 32(%esp)
	movl	$0x00000000, %eax
	movl	%eax, 28(%esp)
	movl	$0x00000000, %eax
	movl	%eax, 24(%esp)
	movl	$0x00000000, %eax
	movl	%eax, 20(%esp)
	movl	$0x42c80000, %eax
	movl	%eax, 16(%esp)
	movl	$0x428c0000, %eax
	movl	%eax, 12(%esp)
	movl	$0x43160000, %eax
	movl	%eax, 8(%esp)
	movl	$.LC33, 4(%esp)
	movl	%edx, (%esp)
	call	newBone
	.loc 1 162 0
	movl	scene, %eax
	movl	2500(%eax), %eax
	movl	%eax, GDID
	.loc 1 163 0
	movl	armMaterial, %eax
	movl	%eax, (%esp)
	movl	armMaterial+4, %eax
	movl	%eax, 4(%esp)
	movl	armMaterial+8, %eax
	movl	%eax, 8(%esp)
	movl	armMaterial+12, %eax
	movl	%eax, 12(%esp)
	movl	armMaterial+16, %eax
	movl	%eax, 16(%esp)
	movl	armMaterial+20, %eax
	movl	%eax, 20(%esp)
	movl	armMaterial+24, %eax
	movl	%eax, 24(%esp)
	movl	armMaterial+28, %eax
	movl	%eax, 28(%esp)
	movl	armMaterial+32, %eax
	movl	%eax, 32(%esp)
	movl	armMaterial+36, %eax
	movl	%eax, 36(%esp)
	movl	armMaterial+40, %eax
	movl	%eax, 40(%esp)
	movl	armMaterial+44, %eax
	movl	%eax, 44(%esp)
	movl	armMaterial+48, %eax
	movl	%eax, 48(%esp)
	call	setmpnMaterial
	.loc 1 164 0
	movl	8(%ebp), %eax
	movl	436(%eax), %eax
	movl	scene, %edx
	leal	1540(%edx), %ecx
	movl	$2, 32(%esp)
	movl	$0x425c0000, %edx
	movl	%edx, 28(%esp)
	movl	$0x41dc0000, %edx
	movl	%edx, 24(%esp)
	movl	%eax, 20(%esp)
	movl	$0x00000000, %eax
	movl	%eax, 16(%esp)
	movl	$0x00000000, %eax
	movl	%eax, 12(%esp)
	movl	$0x00000000, %eax
	movl	%eax, 8(%esp)
	movl	$.LC36, 4(%esp)
	movl	%ecx, (%esp)
	call	newBone
	.loc 1 167 0
	movl	redMaterial, %eax
	movl	%eax, (%esp)
	movl	redMaterial+4, %eax
	movl	%eax, 4(%esp)
	movl	redMaterial+8, %eax
	movl	%eax, 8(%esp)
	movl	redMaterial+12, %eax
	movl	%eax, 12(%esp)
	movl	redMaterial+16, %eax
	movl	%eax, 16(%esp)
	movl	redMaterial+20, %eax
	movl	%eax, 20(%esp)
	movl	redMaterial+24, %eax
	movl	%eax, 24(%esp)
	movl	redMaterial+28, %eax
	movl	%eax, 28(%esp)
	movl	redMaterial+32, %eax
	movl	%eax, 32(%esp)
	movl	redMaterial+36, %eax
	movl	%eax, 36(%esp)
	movl	redMaterial+40, %eax
	movl	%eax, 40(%esp)
	movl	redMaterial+44, %eax
	movl	%eax, 44(%esp)
	movl	redMaterial+48, %eax
	movl	%eax, 48(%esp)
	call	setmpnMaterial
	.loc 1 168 0
	movl	8(%ebp), %eax
	movl	436(%eax), %eax
	movl	scene, %edx
	leal	2692(%edx), %ecx
	movl	$1, 32(%esp)
	movl	$0x00000000, %edx
	movl	%edx, 28(%esp)
	movl	$0x00000000, %edx
	movl	%edx, 24(%esp)
	movl	$0x00000000, %edx
	movl	%edx, 20(%esp)
	movl	$0x00000000, %edx
	movl	%edx, 16(%esp)
	movl	$0x00000000, %edx
	movl	%edx, 12(%esp)
	movl	%eax, 8(%esp)
	movl	$.LC37, 4(%esp)
	movl	%ecx, (%esp)
	call	newBone
	.loc 1 170 0
	movl	scene, %eax
	movl	$0x00000000, %edx
	movl	%edx, 2784(%eax)
	.loc 1 171 0
	movl	scene, %eax
	movl	2692(%eax), %eax
	movl	%eax, GEID
	.loc 1 172 0
	movl	armMaterial, %eax
	movl	%eax, (%esp)
	movl	armMaterial+4, %eax
	movl	%eax, 4(%esp)
	movl	armMaterial+8, %eax
	movl	%eax, 8(%esp)
	movl	armMaterial+12, %eax
	movl	%eax, 12(%esp)
	movl	armMaterial+16, %eax
	movl	%eax, 16(%esp)
	movl	armMaterial+20, %eax
	movl	%eax, 20(%esp)
	movl	armMaterial+24, %eax
	movl	%eax, 24(%esp)
	movl	armMaterial+28, %eax
	movl	%eax, 28(%esp)
	movl	armMaterial+32, %eax
	movl	%eax, 32(%esp)
	movl	armMaterial+36, %eax
	movl	%eax, 36(%esp)
	movl	armMaterial+40, %eax
	movl	%eax, 40(%esp)
	movl	armMaterial+44, %eax
	movl	%eax, 44(%esp)
	movl	armMaterial+48, %eax
	movl	%eax, 48(%esp)
	call	setmpnMaterial
	.loc 1 173 0
	movl	scene, %eax
	leal	1732(%eax), %edx
	movl	$2, 32(%esp)
	movl	$0x42200000, %eax
	movl	%eax, 28(%esp)
	movl	$0x42200000, %eax
	movl	%eax, 24(%esp)
	movl	$0x00000000, %eax
	movl	%eax, 20(%esp)
	movl	$0x00000000, %eax
	movl	%eax, 16(%esp)
	movl	$0x00000000, %eax
	movl	%eax, 12(%esp)
	movl	$0x00000000, %eax
	movl	%eax, 8(%esp)
	movl	$.LC39, 4(%esp)
	movl	%edx, (%esp)
	call	newBone
.L9:
	.loc 1 176 0
	leave
	ret
	.cfi_endproc
.LFE2:
	.size	createRobotObjects, .-createRobotObjects
	.section	.rodata
.LC44:
	.string	"Tool"
.LC48:
	.string	"Pallet"
.LC50:
	.string	"Key"
.LC51:
	.string	"Accessory"
	.text
.globl loadScene
	.type	loadScene, @function
loadScene:
.LFB3:
	.loc 1 179 0
	.cfi_startproc
	pushl	%ebp
.LCFI6:
	.cfi_def_cfa_offset 8
	movl	%esp, %ebp
	.cfi_offset 5, -8
.LCFI7:
	.cfi_def_cfa_register 5
	pushl	%edi
	pushl	%esi
	pushl	%ebx
	subl	$108, %esp
	call	mcount
	.loc 1 181 0
	movl	$1, boneId
	.loc 1 182 0
	movl	8(%ebp), %eax
	addl	$3098084, %eax
	movl	%eax, (%esp)
	.cfi_offset 3, -20
	.cfi_offset 6, -16
	.cfi_offset 7, -12
	call	createRobotObjects
	.loc 1 184 0
	movl	armMaterial, %eax
	movl	%eax, (%esp)
	movl	armMaterial+4, %eax
	movl	%eax, 4(%esp)
	movl	armMaterial+8, %eax
	movl	%eax, 8(%esp)
	movl	armMaterial+12, %eax
	movl	%eax, 12(%esp)
	movl	armMaterial+16, %eax
	movl	%eax, 16(%esp)
	movl	armMaterial+20, %eax
	movl	%eax, 20(%esp)
	movl	armMaterial+24, %eax
	movl	%eax, 24(%esp)
	movl	armMaterial+28, %eax
	movl	%eax, 28(%esp)
	movl	armMaterial+32, %eax
	movl	%eax, 32(%esp)
	movl	armMaterial+36, %eax
	movl	%eax, 36(%esp)
	movl	armMaterial+40, %eax
	movl	%eax, 40(%esp)
	movl	armMaterial+44, %eax
	movl	%eax, 44(%esp)
	movl	armMaterial+48, %eax
	movl	%eax, 48(%esp)
	call	setmpnMaterial
	.loc 1 185 0
	movl	scene, %eax
	leal	2884(%eax), %edx
	movl	$1, 32(%esp)
	movl	$0x00000000, %eax
	movl	%eax, 28(%esp)
	movl	$0x00000000, %eax
	movl	%eax, 24(%esp)
	movl	$0x00000000, %eax
	movl	%eax, 20(%esp)
	movl	$0x00000000, %eax
	movl	%eax, 16(%esp)
	movl	$0x00000000, %eax
	movl	%eax, 12(%esp)
	movl	$0x00000000, %eax
	movl	%eax, 8(%esp)
	movl	$.LC44, 4(%esp)
	movl	%edx, (%esp)
	call	newBone
	.loc 1 189 0
	movl	woodMaterial, %eax
	movl	%eax, (%esp)
	movl	woodMaterial+4, %eax
	movl	%eax, 4(%esp)
	movl	woodMaterial+8, %eax
	movl	%eax, 8(%esp)
	movl	woodMaterial+12, %eax
	movl	%eax, 12(%esp)
	movl	woodMaterial+16, %eax
	movl	%eax, 16(%esp)
	movl	woodMaterial+20, %eax
	movl	%eax, 20(%esp)
	movl	woodMaterial+24, %eax
	movl	%eax, 24(%esp)
	movl	woodMaterial+28, %eax
	movl	%eax, 28(%esp)
	movl	woodMaterial+32, %eax
	movl	%eax, 32(%esp)
	movl	woodMaterial+36, %eax
	movl	%eax, 36(%esp)
	movl	woodMaterial+40, %eax
	movl	%eax, 40(%esp)
	movl	woodMaterial+44, %eax
	movl	%eax, 44(%esp)
	movl	woodMaterial+48, %eax
	movl	%eax, 48(%esp)
	call	setmpnMaterial
	.loc 1 190 0
	movl	scene, %eax
	leal	5000(%eax), %edx
	movl	$1, 32(%esp)
	movl	$0x44480000, %eax
	movl	%eax, 28(%esp)
	movl	$0x43160000, %eax
	movl	%eax, 24(%esp)
	movl	$0x44960000, %eax
	movl	%eax, 20(%esp)
	movl	$0x00000000, %eax
	movl	%eax, 16(%esp)
	movl	$0xc3160000, %eax
	movl	%eax, 12(%esp)
	movl	$0x00000000, %eax
	movl	%eax, 8(%esp)
	movl	$.LC48, 4(%esp)
	movl	%edx, (%esp)
	call	newBone
	.loc 1 193 0
	movl	keyMaterial, %eax
	movl	%eax, (%esp)
	movl	keyMaterial+4, %eax
	movl	%eax, 4(%esp)
	movl	keyMaterial+8, %eax
	movl	%eax, 8(%esp)
	movl	keyMaterial+12, %eax
	movl	%eax, 12(%esp)
	movl	keyMaterial+16, %eax
	movl	%eax, 16(%esp)
	movl	keyMaterial+20, %eax
	movl	%eax, 20(%esp)
	movl	keyMaterial+24, %eax
	movl	%eax, 24(%esp)
	movl	keyMaterial+28, %eax
	movl	%eax, 28(%esp)
	movl	keyMaterial+32, %eax
	movl	%eax, 32(%esp)
	movl	keyMaterial+36, %eax
	movl	%eax, 36(%esp)
	movl	keyMaterial+40, %eax
	movl	%eax, 40(%esp)
	movl	keyMaterial+44, %eax
	movl	%eax, 44(%esp)
	movl	keyMaterial+48, %eax
	movl	%eax, 48(%esp)
	call	setmpnMaterial
	.loc 1 194 0
	movl	scene, %eax
	leal	5192(%eax), %edx
	movl	$1, 32(%esp)
	movl	$0x41a00000, %eax
	movl	%eax, 28(%esp)
	movl	$0x41a00000, %eax
	movl	%eax, 24(%esp)
	movl	$0x41a00000, %eax
	movl	%eax, 20(%esp)
	movl	$0x00000000, %eax
	movl	%eax, 16(%esp)
	movl	$0x00000000, %eax
	movl	%eax, 12(%esp)
	movl	$0x00000000, %eax
	movl	%eax, 8(%esp)
	movl	$.LC50, 4(%esp)
	movl	%edx, (%esp)
	call	newBone
	.loc 1 196 0
	movl	$0, -28(%ebp)
	jmp	.L11
.L12:
	.loc 1 198 0
	movl	-28(%ebp), %eax
	movl	8(%ebp), %edx
	imull	$332, %eax, %eax
	leal	(%edx,%eax), %eax
	addl	$3818880, %eax
	movl	24(%eax), %edx
	movl	%edx, (%esp)
	movl	28(%eax), %edx
	movl	%edx, 4(%esp)
	movl	32(%eax), %edx
	movl	%edx, 8(%esp)
	movl	36(%eax), %edx
	movl	%edx, 12(%esp)
	movl	40(%eax), %edx
	movl	%edx, 16(%esp)
	movl	44(%eax), %edx
	movl	%edx, 20(%esp)
	movl	48(%eax), %edx
	movl	%edx, 24(%esp)
	movl	52(%eax), %edx
	movl	%edx, 28(%esp)
	movl	56(%eax), %edx
	movl	%edx, 32(%esp)
	movl	60(%eax), %edx
	movl	%edx, 36(%esp)
	movl	64(%eax), %edx
	movl	%edx, 40(%esp)
	movl	68(%eax), %edx
	movl	%edx, 44(%esp)
	movl	72(%eax), %eax
	movl	%eax, 48(%esp)
	call	setmpnMaterial
	.loc 1 199 0
	movl	-28(%ebp), %eax
	movl	8(%ebp), %edx
	imull	$332, %eax, %eax
	leal	(%edx,%eax), %eax
	addl	$3818888, %eax
	movl	(%eax), %edx
	movl	%edx, -52(%ebp)
	movl	-28(%ebp), %eax
	movl	8(%ebp), %edx
	imull	$332, %eax, %eax
	leal	(%edx,%eax), %eax
	addl	$3818884, %eax
	movl	(%eax), %edx
	movl	%edx, -48(%ebp)
	movl	-28(%ebp), %eax
	movl	8(%ebp), %edx
	imull	$332, %eax, %eax
	leal	(%edx,%eax), %eax
	addl	$3818880, %eax
	movl	(%eax), %edx
	movl	%edx, -44(%ebp)
	movl	-28(%ebp), %eax
	movl	8(%ebp), %edx
	imull	$332, %eax, %eax
	leal	(%edx,%eax), %eax
	addl	$3818900, %eax
	movl	(%eax), %edi
	movl	-28(%ebp), %eax
	movl	8(%ebp), %edx
	imull	$332, %eax, %eax
	leal	(%edx,%eax), %eax
	addl	$3818896, %eax
	movl	(%eax), %esi
	movl	-28(%ebp), %eax
	movl	8(%ebp), %edx
	imull	$332, %eax, %eax
	leal	(%edx,%eax), %eax
	addl	$3818892, %eax
	movl	(%eax), %ebx
	movl	scene, %eax
	leal	3080(%eax), %ecx
	movl	-28(%ebp), %edx
	movl	%edx, %eax
	addl	%eax, %eax
	addl	%edx, %eax
	sall	$6, %eax
	leal	(%ecx,%eax), %eax
	movl	$1, 32(%esp)
	movl	-52(%ebp), %edx
	movl	%edx, 28(%esp)
	movl	-48(%ebp), %edx
	movl	%edx, 24(%esp)
	movl	-44(%ebp), %edx
	movl	%edx, 20(%esp)
	movl	%edi, 16(%esp)
	movl	%esi, 12(%esp)
	movl	%ebx, 8(%esp)
	movl	$.LC51, 4(%esp)
	movl	%eax, (%esp)
	call	newBone
	.loc 1 196 0
	addl	$1, -28(%ebp)
.L11:
	movl	8(%ebp), %eax
	movl	3818620(%eax), %eax
	cmpl	-28(%ebp), %eax
	jg	.L12
	.loc 1 208 0
	movl	scene, %eax
	movl	8(%ebp), %edx
	movl	3818620(%edx), %edx
	movl	%edx, 3076(%eax)
	.loc 1 209 0
	movl	scene, %eax
	movl	$0, 5384(%eax)
	.loc 1 210 0
	movl	$0, -28(%ebp)
	jmp	.L13
.L16:
	.loc 1 212 0
	movl	$0, -32(%ebp)
	jmp	.L14
.L15:
	.loc 1 214 0
	movl	scene, %eax
	movl	-28(%ebp), %ecx
	movl	-32(%ebp), %edx
	sall	$2, %ecx
	leal	(%ecx,%edx), %edx
	addl	$1344, %edx
	movl	$1, 12(%eax,%edx,4)
	.loc 1 212 0
	addl	$1, -32(%ebp)
.L14:
	cmpl	$3, -32(%ebp)
	jle	.L15
	.loc 1 210 0
	addl	$1, -28(%ebp)
.L13:
	cmpl	$9, -28(%ebp)
	jle	.L16
	.loc 1 217 0
	addl	$108, %esp
	popl	%ebx
	popl	%esi
	popl	%edi
	popl	%ebp
	ret
	.cfi_endproc
.LFE3:
	.size	loadScene, .-loadScene
	.section	.rodata
	.align 8
.LC0:
	.long	858993459
	.long	1072902963
	.align 8
.LC1:
	.long	-1717986918
	.long	1070176665
	.align 4
.LC3:
	.long	1143930880
	.align 4
.LC13:
	.long	1133969408
	.align 4
.LC26:
	.long	1125515264
	.text
.Letext0:
	.section	.note.GNU-stack,"",@progbits
